(lp1
I0
aI2
aI5
aI0
aI0
aI0
aI5
aI0
aI9
aI2
aI5
aI6
aI2
aI9
aI7
aI1
a.(lp1
I0
aI0
aI0
aI9
aI4
aI0
aI0
aI0
aI0
aI0
aI0
aI0
aI5
aI0
aI0
aI0
aI0
aI0
aI0
aI0
aI5
aI0
aI0
aI0
aI0
aI0
aI0
aI0
aI5
aI0
aI0
aI0
aI4
aI0
aI0
aI8
aI5
aI0
aI0
aI8
aI9
aI4
aI0
aI0
aI5
aI0
aI8
aI6
aI0
aI9
aI4
aI0
aI9
aI12
aI6
aI0
aI0
aI0
aI9
aI12
aI6
aI1
aI0
aI0
a.(lp1
(lp2
F101.50595641196958
aF0
aa(lp3
F101.86580644490709
aF0.85765061907783036
aa(lp4
F102.2256564778445
aF1.7153012381556323
aa(lp5
F103.8328924786278
aF2.2529823954121468
aa(lp6
F104.99789513085733
aF2.9041017106916627
aa(lp7
F105.35774516379485
aF3.7617523297694859
aa(lp8
F106.15982854528608
aF4.5059647908242937
aa(lp9
F107.90304986991367
aF5.0087640815153165
aa(lp10
F108.48983384974514
aF5.8082034213833538
aa(lp11
F108.8496838826826
aF6.665854040461177
aa(lp12
F110.22998593657189
aF7.2617464769274633
aa(lp13
F111.97320726119955
aF7.7645457676184932
aa(lp14
F113.7164285858272
aF8.2673450583095232
aa(lp15
F114.39416118870827
aF9.0434549855332484
aa(lp16
F114.75401122164573
aF9.901105604611093
aa(lp17
F116.04336465248542
aF10.520327453721684
aa(lp18
F117.52624987465856
aF11.08990607714712
aa(lp19
F117.88609990759602
aF11.947556696224961
aa(lp20
F118.24594994053354
aF12.805207315302788
aa(lp21
F118.60579997347088
aF13.662857934380593
aa(lp22
F118.96565000640834
aF14.520508553458438
aa(lp23
F119.32550003934574
aF15.378159172536225
aa(lp24
F119.6853500722832
aF16.23580979161407
aa(lp25
F120.04520010522072
aF17.093460410691875
aa(lp26
F120.40505013815806
aF17.951111029769699
aa(lp27
F120.76490017109552
aF18.808761648847526
aa(lp28
F121.12475020403303
aF19.666412267925349
aa(lp29
F121.48460023697044
aF20.524062887003176
aa(lp30
F121.84445026990784
aF21.381713506080999
aa(lp31
F123.0320957539243
aF22.02702466343047
aa(lp32
F124.61668892292067
aF22.570513978617008
aa(lp33
F124.97653895585813
aF23.428164597694852
aa(lp34
F125.35903182058252
aF24.280007058842614
aa(lp35
F127.10225314521017
aF24.782806349533644
aa(lp36
F128.10862764180843
aF25.47461568930872
aa(lp37
F128.46847767474594
aF26.332266308386544
aa(lp38
F128.82832770768329
aF27.189916927464353
aa(lp39
F129.18817774062074
aF28.047567546542176
aa(lp40
F129.54802777355826
aF28.905218165620003
aa(lp41
F129.90787780649566
aF29.762868784697808
aa(lp42
F129.88872127145549
aF30.585440287669066
aa(lp43
F128.65440474382848
aF31.295542134255584
aa(lp44
F128.62212771472355
aF32.116899264248751
aa(lp45
F128.98197774766106
aF32.974549883326574
aa(lp46
F129.34182778059841
aF33.832200502404405
aa(lp47
F129.70167781353598
aF34.689851121482228
aa(lp48
F129.17290132290918
aF35.465254530012174
aa(lp49
F128.05607768882641
aF36.186230981955347
aa(lp50
F128.41592772176386
aF37.043881601033171
aa(lp51
F128.77577775470138
aF37.901532220110994
aa(lp52
F129.13562778763873
aF38.759182839188803
aa(lp53
F129.49547782057618
aF39.616833458266647
aa(lp54
F128.45708137436282
aF40.345068772355283
aa(lp55
F127.22276484673569
aF41.05517061894178
aa(lp56
F125.98844831910861
aF41.765272465528277
aa(lp57
F126.20427757115732
aF42.609593179212865
aa(lp58
F126.56412760409467
aF43.467243798290689
aa(lp59
F126.92397763703218
aF44.324894417368519
aa(lp60
F127.28382766996964
aF45.182545036446342
aa(lp61
F127.6436777029071
aF46.040195655524187
aa(lp62
F128.0035277358445
aF46.897846274601989
aa(lp63
F128.36337776878185
aF47.755496893679819
aa(lp64
F128.72322780171942
aF48.613147512757642
aa(lp65
F129.08307783465676
aF49.470798131835451
aa(lp66
F129.44292786759428
aF50.328448750913253
aa(lp67
F129.13616455825104
aF51.124400685040001
aa(lp68
F127.90184803062397
aF51.834502531626498
aa(lp69
F128.15717777582216
aF52.682479230464196
aa(lp70
F128.51702780875962
aF53.540129849542026
aa(lp71
F128.87687784169708
aF54.397780468619828
aa(lp72
F129.23672787463448
aF55.255431087697659
aa(lp73
F128.42034460970473
aF56.004214927383074
aa(lp74
F127.59112774992496
aF56.751810948170771
aa(lp75
F127.95097778286242
aF57.60946156724858
aa(lp76
F128.06243463543154
aF58.444122048554618
aa(lp77
F126.82811810780453
aF59.154223895141115
aa(lp78
F126.66522769109042
aF59.963492046799523
aa(lp79
F127.02507772402788
aF60.821142665877346
aa(lp80
F127.38492775696528
aF61.678793284955155
aa(lp81
F127.74477778990274
aF62.536443904032978
aa(lp82
F127.34661468688523
aF63.323936290897691
aa(lp83
F126.11229815925822
aF64.034038137484188
aa(lp84
F124.87798163163109
aF64.744139984070699
aa(lp85
F124.45357754048376
aF65.529203624979203
aa(lp86
F124.81342757342122
aF66.38685424405702
aa(lp87
F125.17327760635862
aF67.244504863134836
aa(lp88
F125.53312763929608
aF68.102155482212638
aa(lp89
F125.89297767223354
aF68.959806101290468
aa(lp90
F126.25282770517094
aF69.81745672036827
aa(lp91
F126.27288476406579
aF70.643657654412294
aa(lp92
F125.03856823643866
aF71.353759500998791
aa(lp93
F124.96707761339889
aF72.171487199919213
aa(lp94
F125.32692764633634
aF73.029137818997043
aa(lp95
F125.68677767927375
aF73.886788438074845
aa(lp96
F126.0466277122112
aF74.744439057152675
aa(lp97
F125.55706481551937
aF75.523471896755382
aa(lp98
F124.40102758750174
aF76.240818917625788
aa(lp99
F124.7608776204392
aF77.09846953670359
aa(lp100
F125.12072765337666
aF77.95612015578142
aa(lp101
F125.48057768631406
aF78.813770774859222
aa(lp102
F125.84042771925152
aF79.671421393937052
aa(lp103
F126.20027775218898
aF80.529072013014854
aa(lp104
F126.56012778512638
aF81.386722632092685
aa(lp105
F126.91997781806384
aF82.244373251170501
aa(lp106
F127.2798278510013
aF83.102023870248317
aa(lp107
F127.63967788393876
aF83.959674489326133
aa(lp108
F127.99952791687616
aF84.817325108403949
aa(lp109
F128.35937794981351
aF85.674975727481765
aa(lp110
F128.71922798275097
aF86.532626346559582
aa(lp111
F128.34687108038872
aF87.322507237438572
aa(lp112
F127.11255455276165
aF88.032609084025069
aa(lp113
F127.43347789097896
aF88.88665682611051
aa(lp114
F127.79332792391642
aF89.744307445188326
aa(lp115
F126.75464457848852
aF90.472516205196641
aa(lp116
F126.14772779920696
aF91.240687305661453
aa(lp117
F126.50757783214431
aF92.098337924739269
aa(lp118
F126.86742786508177
aF92.955988543817085
aa(lp119
F127.22727789801922
aF93.813639162894901
aa(lp120
F127.27314115756923
aF94.642228600953217
aa(lp121
F126.03882462994221
aF95.352330447539714
aa(lp122
F125.94152780624722
aF96.167669642445844
aa(lp123
F126.30137783918462
aF97.02532026152366
aa(lp124
F125.68091465566897
aF97.792237568711244
aa(lp125
F124.65577771447522
aF98.521700121996787
aa(lp126
F125.01562774741262
aF99.379350741074603
aa(lp127
F125.32300468139579
aF100.2321446898828
aa(lp128
F124.08868815376866
aF100.94224653646933
aa(lp129
F123.72987765564056
aF101.73338122062555
aa(lp130
F124.08972768857797
aF102.59103183970336
aa(lp131
F123.73077817949553
aF103.38215365764084
aa(lp132
F122.49646165186846
aF104.09225550422735
aa(lp133
F122.80397759680596
aF104.9450623192543
aa(lp134
F123.16382762974342
aF105.80271293833212
aa(lp135
F122.13855167759533
aF106.53216262539891
aa(lp136
F121.51822750503391
aF107.29909279880523
aa(lp137
F121.87807753797136
aF108.15674341788306
aa(lp138
F122.63474692276566
aF108.91260511378324
aa(lp139
F124.37796824739326
aF109.41540440447427
aa(lp140
F125.0101662239216
aF110.20319450949691
aa(lp141
F125.37001625685906
aF111.06084512857473
aa(lp142
F124.60625397914413
aF111.81449932639141
aa(lp143
F123.7244161321496
aF112.55722498904785
aa(lp144
F124.08426616508706
aF113.41487560812567
aa(lp145
F124.248344004871
aF114.25440644756296
aa(lp146
F123.01402747724399
aF114.96450829414947
aa(lp147
F122.798516073315
aF115.76890608767661
aa(lp148
F123.1583661062524
aF116.62655670675443
aa(lp149
F123.51821613918986
aF117.48420732583224
aa(lp150
F123.87806617212732
aF118.34185794491006
aa(lp151
F123.53252405632469
aF119.13422068990604
aa(lp152
F122.29820752869756
aF119.84432253649256
aa(lp153
F122.59231608035532
aF120.69588842446099
aa(lp154
F122.95216611329272
aF121.55353904353882
aa(lp155
F123.31201614623018
aF122.41118966261662
aa(lp156
F123.67186617916764
aF123.26884028169445
aa(lp157
F124.03171621210504
aF124.12649090077225
aa(lp158
F124.3915662450425
aF124.98414151985008
aa(lp159
F123.69311066113227
aF125.74384020683415
aa(lp160
F122.74596612033298
aF126.4805213803232
aa(lp161
F123.10581615327044
aF127.33817199940104
aa(lp162
F123.46566618620795
aF128.19582261847884
aa(lp163
F123.8255162191453
aF129.05347323755666
aa(lp164
F124.18536625208276
aF129.9111238566345
aa(lp165
F122.97729071258584
aF130.62365444917725
aa(lp166
F121.74297418495871
aF131.33375629576375
aa(lp167
F120.53431596972644
aF132.04623295850291
aa(lp168
F120.89416600266378
aF132.90388357758076
aa(lp169
F121.2540160356013
aF133.76153419665854
aa(lp170
F120.15074768305851
aF134.48376526352183
aa(lp171
F118.91643115543138
aF135.19386711010836
aa(lp172
F117.68211462780425
aF135.90396895669488
aa(lp173
F117.9628157861822
aF136.75429391760485
aa(lp174
F118.32266581911978
aF137.61194453668264
aa(lp175
F118.68251585205718
aF138.46959515576049
aa(lp176
F119.04236588499452
aF139.32724577483833
aa(lp177
F118.20061120688501
aF140.07368135245144
aa(lp178
F117.39676576028512
aF140.82362563531143
aa(lp179
F117.75661579322252
aF141.68127625438927
aa(lp180
F118.11646582616009
aF142.53892687346706
aa(lp181
F118.47631585909744
aF143.39657749254491
aa(lp182
F118.93774550573499
aF144.22817172236915
aa(lp183
F120.68096683036265
aF144.73097101306018
aa(lp184
F121.60840454504773
aF145.44302858415875
aa(lp185
F121.96825457798514
aF146.3006792032366
aa(lp186
F122.32810461092271
aF147.15832982231439
aa(lp187
F122.68795464386005
aF148.01598044139223
aa(lp188
F123.04780467679751
aF148.87363106047007
aa(lp189
F123.40765470973503
aF149.73128167954786
aa(lp190
F123.76750474267237
aF150.58893229862571
aa(lp191
F124.12735477560983
aF151.44658291770355
aa(lp192
F124.48720480854735
aF152.30423353678134
aa(lp193
F124.84705484148481
aF153.16188415585916
aa(lp194
F125.20690487442215
aF154.019534774937
aa(lp195
F125.56675490735955
aF154.87718539401479
aa(lp196
F125.92660494029701
aF155.73483601309263
aa(lp197
F126.28645497323453
aF156.59248663217045
aa(lp198
F126.64630500617187
aF157.45013725124826
aa(lp199
F125.56884285428413
aF158.1747568221258
aa(lp200
F125.00070488146247
aF158.94651711172136
aa(lp201
F125.36055491439987
aF159.80416773079921
aa(lp202
F125.72040494733733
aF160.66181834987702
aa(lp203
F126.08025498027479
aF161.51946896895484
aa(lp204
F126.44010501321225
aF162.37711958803266
aa(lp205
F126.79995504614965
aF163.23477020711047
aa(lp206
F127.15980507908711
aF164.09242082618829
aa(lp207
F127.51965511202457
aF164.9500714452661
aa(lp208
F127.91365418885977
aF165.79896242500266
aa(lp209
F129.65687551348731
aF166.30176171569369
aa(lp210
F130.65174379797486
aF166.99652253687998
aa(lp211
F131.01159383091226
aF167.85417315595777
aa(lp212
F131.37144386384972
aF168.71182377503561
aa(lp213
F131.73129389678718
aF169.56947439411346
aa(lp214
F131.54217136924865
aF170.37631462145839
aa(lp215
F130.30785484162152
aF171.08641646804494
aa(lp216
F130.44554380501518
aF171.9235048736644
aa(lp217
F130.80539383795252
aF172.78115549274219
aa(lp218
F131.16524387089004
aF173.63880611182003
aa(lp219
F131.5250939038275
aF174.49645673089788
aa(lp220
F130.82635142070228
aF175.25612886380156
aa(lp221
F129.87949377911792
aF175.99283659137097
aa(lp222
F130.23934381205538
aF176.85048721044882
aa(lp223
F130.59919384499284
aF177.70813782952661
aa(lp224
F130.95904387793024
aF178.56578844860439
aa(lp225
F131.3188939108677
aF179.42343906768224
aa(lp226
F131.67874394380516
aF180.28108968676008
aa(lp227
F132.03859397674262
aF181.13874030583787
aa(lp228
F132.39844400968002
aF181.99639092491572
aa(lp229
F132.75829404261748
aF182.85404154399356
aa(lp230
F133.11814407555494
aF183.71169216307135
aa(lp231
F133.47799410849234
aF184.56934278214919
aa(lp232
F133.8378441414298
aF185.42699340122704
aa(lp233
F134.19769417436726
aF186.28464402030482
aa(lp234
F134.55754420730466
aF187.14229463938261
aa(lp235
F134.91739424024212
aF187.99994525846046
aa(lp236
F135.27724427317958
aF188.8575958775383
aa(lp237
F135.63709430611698
aF189.71524649661609
aa(lp238
F135.99694433905444
aF190.57289711569393
aa(lp239
F136.3567943719919
aF191.43054773477178
aa(lp240
F136.71664440492935
aF192.28819835384957
aa(lp241
F137.07649443786676
aF193.14584897292741
aa(lp242
F137.12178389898708
aF193.97438530282494
aa(lp243
F135.88746737136
aF194.6844871494115
aa(lp244
F135.79074434609475
aF195.49987945247835
aa(lp245
F136.1505943790321
aF196.3575300715562
aa(lp246
F136.51044441196967
aF197.21518069063399
aa(lp247
F136.87029444490702
aF198.07283130971183
aa(lp248
F137.23014447784453
aF198.93048192878962
aa(lp249
F137.58999451078199
aF199.78813254786746
aa(lp250
F239.6401499670626
aF144.99628561256418
aa(lp251
F240
aF145.85393623164202
aa(lp252
F238.9223899598519
aF146.57854211465792
aa(lp253
F238.3543998752906
aF147.35031609211512
aa(lp254
F238.714249908228
aF148.20796671119297
aa(lp255
F238.56447998557883
aF149.01844923582945
aa(lp256
F237.3301634579517
aF149.72855108241595
aa(lp257
F236.09584693032457
aF150.43865292900244
aa(lp258
F234.86153040269755
aF151.148754775589
aa(lp259
F233.62721387507054
aF151.85885662217547
aa(lp260
F232.39289734744341
aF152.56895846876199
aa(lp261
F231.77199937645264
aF153.33583553400757
aa(lp262
F232.13184940939004
aF154.19348615308542
aa(lp263
F232.03498737317022
aF155.00886558993352
aa(lp264
F230.8006708455431
aF155.71896743652002
aa(lp265
F229.56635431791608
aF156.42906928310651
aa(lp266
F228.33203779028906
aF157.13917112969304
aa(lp267
F227.09772126266193
aF157.84927297627956
aa(lp268
F227.1950490352616
aF158.68262573450477
aa(lp269
F227.55489906819901
aF159.54027635358261
aa(lp270
F226.73981128838875
aF160.28918009745109
aa(lp271
F225.50549476076162
aF160.99928194403762
aa(lp272
F224.27117823313461
aF161.70938379062414
aa(lp273
F223.03686170550748
aF162.41948563721064
aa(lp274
F221.80254517788035
aF163.1295874837972
aa(lp275
F220.56822865025322
aF163.83968933038369
aa(lp276
F219.33391212262609
aF164.54979117697019
aa(lp277
F218.09959559499896
aF165.25989302355674
aa(lp278
F216.86527906737194
aF165.96999487014324
aa(lp279
F215.63096253974481
aF166.68009671672976
aa(lp280
F214.39664601211769
aF167.39019856331629
aa(lp281
F213.16232948449067
aF168.10030040990281
aa(lp282
F211.92801295686354
aF168.81040225648934
aa(lp283
F210.69369642923641
aF169.52050410307584
aa(lp284
F209.4593799016094
aF170.23060594966239
aa(lp285
F209.65949768935457
aF171.07347248200267
aa(lp286
F210.01934772229197
aF171.93112310108052
aa(lp287
F209.1014699273361
aF172.67051307083392
aa(lp288
F207.86715339970908
aF173.38061491742042
aa(lp289
F206.63283687208195
aF174.09071676400697
aa(lp290
F205.39852034445482
aF174.80081861059347
aa(lp291
F204.16420381682769
aF175.51092045717996
aa(lp292
F202.92988728920056
aF176.22102230376652
aa(lp293
F201.69557076157344
aF176.93112415035301
aa(lp294
F200.46125423394631
aF177.64122599693951
aa(lp295
F199.22693770631929
aF178.35132784352606
aa(lp296
F197.99262117869216
aF179.06142969011256
aa(lp297
F196.75830465106503
aF179.77153153669911
aa(lp298
F195.52398812343802
aF180.48163338328561
aa(lp299
F194.28967159581089
aF181.19173522987217
aa(lp300
F193.05535506818376
aF181.90183707645866
aa(lp301
F191.82103854055674
aF182.61193892304516
aa(lp302
F190.58672201292961
aF183.32204076963171
aa(lp303
F189.35240548530248
aF184.03214261621821
aa(lp304
F188.11808895767535
aF184.74224446280476
aa(lp305
F186.88377243004823
aF185.45234630939126
aa(lp306
F185.6494559024211
aF186.16244815597781
aa(lp307
F184.46199574579731
aF186.87688681415972
aa(lp308
F184.82184577873477
aF187.73453743323756
aa(lp309
F185.18169581167217
aF188.59218805231535
aa(lp310
F185.54154584460969
aF189.44983867139319
aa(lp311
F185.90139587754697
aF190.30748929047104
aa(lp312
F186.26124591048449
aF191.16513990954883
aa(lp313
F186.62109594342201
aF192.02279052862667
aa(lp314
F185.81004250722867
aF192.77206767290591
aa(lp315
F184.57572597960166
aF193.4821695194924
aa(lp316
F183.34140945197453
aF194.19227136607896
aa(lp317
F182.1070929243474
aF194.90237321266545
aa(lp318
F180.87277639672027
aF195.61247505925201
aa(lp319
F179.6384598690932
aF196.3225769058385
aa(lp320
F178.40414334146607
aF197.032678752425
aa(lp321
F177.16982681383894
aF197.74278059901155
aa(lp322
F175.93551028621192
aF198.45288244559805
aa(lp323
F174.70119375858479
aF199.16298429218455
aa(lp324
F174.02234497164335
aF199.92449769470517
aa(lp325
F174.38219500458069
aF200.78214831378295
aa(lp326
F174.34328378431161
aF201.60289141335613
aa(lp327
F173.10896725668448
aF202.31299325994263
aa(lp328
F173.09644491280869
aF203.1361787933339
aa(lp329
F173.45629494574615
aF203.99382941241174
aa(lp330
F172.75105728241124
aF204.75290038111422
aa(lp331
F171.51674075478422
aF205.46300222770071
aa(lp332
F170.28242422715709
aF206.17310407428721
aa(lp333
F169.04810769952996
aF206.88320592087376
aa(lp334
F167.81379117190289
aF207.59330776746032
aa(lp335
F166.57947464427576
aF208.30340961404681
aa(lp336
F165.34515811664863
aF209.01351146063331
aa(lp337
F164.11084158902162
aF209.72361330721986
aa(lp338
F162.87652506139449
aF210.43371515380636
aa(lp339
F161.6422085337673
aF211.14381700039291
aa(lp340
F160.85754397396744
aF211.89553657849029
aa(lp341
F161.21739400690501
aF212.75318719756808
aa(lp342
F161.57724403984236
aF213.61083781664598
aa(lp343
F161.93709407277976
aF214.46848843572377
aa(lp344
F162.16070511284806
aF215.31352939614948
aa(lp345
F160.92638858522093
aF216.02363124273597
aa(lp346
F159.69207205759386
aF216.73373308932253
aa(lp347
F158.64589382336089
aF217.46124815667002
aa(lp348
F159.00574385629835
aF218.31889877574787
aa(lp349
F159.33416208332062
aF219.17364021049406
aa(lp350
F158.09984555569349
aF219.88374205708061
aa(lp351
F156.86552902806648
aF220.59384390366711
aa(lp352
F155.63121250043935
aF221.30394575025366
aa(lp353
F154.39689597281222
aF222.01404759684016
aa(lp354
F153.16257944518514
aF222.72414944342665
aa(lp355
F151.92826291755802
aF223.43425129001321
aa(lp356
F150.69394638993089
aF224.1443531365997
aa(lp357
F149.45962986230387
aF224.85445498318626
aa(lp358
F148.41244304216661
aF225.58187670043105
aa(lp359
F148.77229307510407
aF226.4395273195089
aa(lp360
F149.10171988803063
aF227.29436210435779
aa(lp361
F147.86740336040356
aF228.00446395094428
aa(lp362
F147.48654298333207
aF228.79355779905984
aa(lp363
F147.84639301626942
aF229.65120841813768
aa(lp364
F147.50949338613043
aF230.44437107211581
aa(lp365
F146.2751768585033
aF231.15447291870237
aa(lp366
F145.04086033087617
aF231.86457476528886
aa(lp367
F144.55519276685055
aF232.64396813908394
aa(lp368
F144.91504279978795
aF233.50161875816173
aa(lp369
F144.68295035660299
aF234.30448188646045
aa(lp370
F143.44863382897586
aF235.01458373304695
aa(lp371
F143.62929270801595
aF235.85564923771267
aa(lp372
F143.9891427409533
aF236.71329985679057
aa(lp373
F144.34899277389087
aF237.57095047586836
aa(lp374
F144.70884280682827
aF238.4286010949462
aa(lp375
F143.96713040805662
aF239.18429612880357
aa(lp376
F142.55225347401398
aF239.77759576241135
aa(lp377
F140.44681626744506
aF239.92418080544235
aa(lp378
F138.38085108519977
aF240
aa(lp379
F136.63762976057222
aF239.49720070930903
aa(lp380
F134.89440843594457
aF238.994401418618
aa(lp381
F133.15118711131691
aF238.49160212792697
aa(lp382
F131.40796578668932
aF237.98880283723594
aa(lp383
F129.66474446206178
aF237.48600354654491
aa(lp384
F127.92152313743412
aF236.98320425585388
aa(lp385
F126.17830181280652
aF236.4804049651629
aa(lp386
F124.43508048817893
aF235.97760567447182
aa(lp387
F122.69185916355133
aF235.47480638378079
aa(lp388
F120.94863783892367
aF234.97200709308976
aa(lp389
F119.20541651429608
aF234.46920780239878
aa(lp390
F117.46219518966853
aF233.96640851170775
aa(lp391
F115.71897386504088
aF233.46360922101672
aa(lp392
F113.97575254041323
aF232.96080993032564
aa(lp393
F112.23253121578568
aF232.45801063963467
aa(lp394
F110.48930989115809
aF231.95521134894364
aa(lp395
F108.74608856653043
aF231.45241205825261
aa(lp396
F107.00286724190283
aF230.94961276756158
aa(lp397
F105.25964591727518
aF230.4468134768706
aa(lp398
F103.51642459264764
aF229.94401418617952
aa(lp399
F101.77320326801998
aF229.44121489548854
aa(lp400
F100.02998194339239
aF228.93841560479751
aa(lp401
F98.286760618764845
aF228.43561631410648
aa(lp402
F96.54353929413719
aF227.93281702341545
aa(lp403
F94.800317969509535
aF227.43001773272442
aa(lp404
F93.057096644881938
aF226.92721844203339
aa(lp405
F91.313875320254397
aF226.42441915134236
aa(lp406
F89.570653995626742
aF225.92161986065133
aa(lp407
F87.827432670999087
aF225.4188205699603
aa(lp408
F86.084211346371546
aF224.91602127926927
aa(lp409
F84.340990021743949
aF224.41322198857824
aa(lp410
F83.91309086379232
aF223.57302678624353
aa(lp411
F83.553240830854747
aF222.71537616716574
aa(lp412
F82.014053955085728
aF222.16023959316612
aa(lp413
F80.270832630458074
aF221.65744030247509
aa(lp414
F78.527611305830476
aF221.15464101178407
aa(lp415
F76.784389981202878
aF220.65184172109304
aa(lp416
F75.596374904753702
aF220.00662536863541
aa(lp417
F75.236524871816243
aF219.14897474955762
aa(lp418
F74.457453914544658
aF218.39885932568092
aa(lp419
F72.71423258991706
aF217.89606003498989
aa(lp420
F72.104436185866007
aF217.10252365794378
aa(lp421
F71.744586152928605
aF216.24487303886593
aa(lp422
F70.387296523258783
aF215.64307763957771
aa(lp423
F68.972347499915656
aF215.05607256632987
aa(lp424
F68.612497466978198
aF214.19842194725209
aa(lp425
F68.060360456600563
aF213.39009524416559
aa(lp426
F66.317139131972908
aF212.88729595347456
aa(lp427
F65.480408781027904
aF212.15197085563824
aa(lp428
F65.120558748090502
aF211.2943202365604
aa(lp429
F63.990203065314688
aF210.63431355806239
aa(lp430
F62.348320095077611
aF210.10551976402434
aa(lp431
F61.988470062140266
aF209.24786914494655
aa(lp432
F61.62862002920275
aF208.3902185258687
aa(lp433
F59.920045674028927
aF207.87853187195924
aa(lp434
F58.856381376189915
aF207.20141805333265
aa(lp435
F58.4965313432524
aF206.34376743425486
aa(lp436
F57.593109607370707
aF205.62554947654706
aa(lp437
F55.849888282743052
aF205.12275018585603
aa(lp438
F55.364442657302106
aF204.29731634264101
aa(lp439
F55.004592624364761
aF203.43966572356317
aa(lp440
F53.522952216084832
aF202.86976779044392
aa(lp441
F52.23235397135187
aF202.25086525102716
aa(lp442
F51.872503938414468
aF201.39321463194932
aa(lp443
F51.196016149426612
aF200.61678539503174
aa(lp444
F49.452794824799071
aF200.11398610434071
aa(lp445
F48.740415252464175
aF199.34676354033547
aa(lp446
F48.380565219526716
aF198.48911292125763
aa(lp447
F48.020715186589257
aF197.63146230217984
aa(lp448
F47.660865153651855
aF196.773811683102
aa(lp449
F47.301015120714396
aF195.91616106402415
aa(lp450
F46.941165087776881
aF195.05851044494636
aa(lp451
F46.581315054839536
aF194.20085982586852
aa(lp452
F46.221465021902077
aF193.34320920679073
aa(lp453
F45.861614988964561
aF192.48555858771289
aa(lp454
F45.501764956027159
aF191.62790796863504
aa(lp455
F44.790999790018304
aF190.86027129004407
aa(lp456
F43.047778465390707
aF190.35747199935304
aa(lp457
F42.369676270076923
aF189.5814568770212
aa(lp458
F42.009826237139464
aF188.72380625794335
aa(lp459
F40.720842398732486
aF188.10448960394092
aa(lp460
F39.237587584126516
aF187.53500578540735
aa(lp461
F38.877737551189114
aF186.67735516632951
aa(lp462
F38.517887518251712
aF185.81970454725166
aa(lp463
F38.158037485314253
aF184.96205392817387
aa(lp464
F37.798187452376851
aF184.10440330909603
aa(lp465
F36.066970265415989
aF183.59852481311663
aa(lp466
F35.02594879936396
aF182.91560283656003
aa(lp467
F34.666098766426558
aF182.05795221748218
aa(lp468
F34.306248733489042
aF181.20030159840439
aa(lp469
F33.94639870055164
aF180.34265097932655
aa(lp470
F33.586548667614238
aF179.4850003602487
aa(lp471
F33.226698634676723
aF178.62734974117092
aa(lp472
F32.572604714696581
aF177.84517620826222
aa(lp473
F30.829383390068983
aF177.34237691757119
aa(lp474
F30.094609948726486
aF176.58089864955707
aa(lp475
F29.734759915789084
aF175.72324803047923
aa(lp476
F29.374909882851512
aF174.86559741140144
aa(lp477
F29.01505984991411
aF174.00794679232359
aa(lp478
F27.918732581380141
aF173.33921141743792
aa(lp479
F26.242821196901218
aF172.81914631978759
aa(lp480
F25.882971163963873
aF171.96149570070975
aa(lp481
F25.523121131026471
aF171.1038450816319
aa(lp482
F23.848575190094323
aF170.58342973133477
aa(lp483
F22.75088247801358
aF169.9150446090959
aa(lp484
F22.391032445076178
aF169.05739399001806
aa(lp485
F22.031182412138605
aF168.19974337094021
aa(lp486
F21.67133237920126
aF167.34209275186242
aa(lp487
F21.311482346263858
aF166.48444213278458
aa(lp488
F20.951632313326343
aF165.62679151370679
aa(lp489
F20.354209639374858
aF164.83008112648037
aa(lp490
F18.61098831474726
aF164.32728183578934
aa(lp491
F17.819543627376049
aF163.58034042209292
aa(lp492
F17.459693594438647
aF162.7226898030151
aa(lp493
F16.28405224808904
aF162.07429944037719
aa(lp494
F14.687454941425756
aF161.53388933047907
aa(lp495
F14.327604908488354
aF160.67623871140123
aa(lp496
F13.967754875550838
aF159.81858809232341
aa(lp497
F13.60790484261338
aF158.96093747324559
aa(lp498
F13.248054809676034
aF158.10328685416778
aa(lp499
F11.630180114772543
aF157.5683346495529
aa(lp500
F10.475816156663143
aF156.91448638163175
aa(lp501
F10.115966123725741
aF156.0568357625539
aa(lp502
F9.7561160907882254
aF155.19918514347609
aa(lp503
F9.3962660578508235
aF154.34153452439827
aa(lp504
F8.7195293060837571
aF153.56516914941963
aa(lp505
F6.9763079814561593
aF153.0623698587286
aa(lp506
F5.2330866568285614
aF152.55957056803757
aa(lp507
F3.8517887518251541
aF151.96393357932618
aa(lp508
F3.4919387188876385
aF151.10628296024839
aa(lp509
F2.9061505901702844
aF150.30658817262542
aa(lp510
F1.1629292655427435
aF149.80378888193442
aa(lp511
F0.35985003293734508
aF149.05983186863455
aa(lp512
F0
aF148.2021812495567
aa.