(lp1
I12
aI6
aI3
aI9
aI5
aI0
aI0
aI10
aI0
aI0
aI0
aI10
aI0
aI0
aI12
aI6
a.(lp1
I0
aI0
aI12
aI6
aI3
aI3
aI9
aI0
aI8
aI6
aI1
aI0
aI0
aI0
aI2
aI5
aI6
aI0
aI0
aI0
aI0
aI0
aI0
aI9
aI1
aI0
aI0
aI0
aI0
aI0
aI0
aI10
aI0
aI0
aI0
aI0
aI0
aI0
aI0
aI10
aI0
aI0
aI0
aI0
aI0
aI0
aI0
aI6
aI0
aI0
aI0
aI0
aI0
aI0
aI6
aI1
aI0
aI0
aI0
aI0
aI12
aI6
aI1
aI0
a.(lp1
(lp2
F122.39631516741424
aF238.61897603559999
aa(lp3
F123.46716844378436
aF238.89518082847991
aa(lp4
F124.53802172015445
aF239.17138562136
aa(lp5
F125.60887499652456
aF239.44759041423998
aa(lp6
F126.67972827289468
aF239.72379520711996
aa(lp7
F127.75058154926474
aF240
aa(lp8
F128.77065771920564
aF239.8858362728829
aa(lp9
F129.74053675602562
aF239.3857627934679
aa(lp10
F130.71041579284559
aF238.88568931405285
aa(lp11
F131.68029482966557
aF238.38561583463786
aa(lp12
F132.65017386648555
aF237.88554235522281
aa(lp13
F133.62005290330552
aF237.38546887580776
aa(lp14
F134.5899319401255
aF236.88539539639277
aa(lp15
F135.55981097694547
aF236.38532191697772
aa(lp16
F136.52969001376545
aF235.88524843756272
aa(lp17
F137.49956905058542
aF235.38517495814767
aa(lp18
F138.46944808740545
aF234.88510147873268
aa(lp19
F139.43932712422543
aF234.38502799931763
aa(lp20
F140.4092061610454
aF233.88495451990258
aa(lp21
F141.37908519786538
aF233.38488104048758
aa(lp22
F142.34896423468535
aF232.88480756107253
aa(lp23
F143.31884327150533
aF232.38473408165754
aa(lp24
F144.2887223083253
aF231.88466060224249
aa(lp25
F145.25860134514528
aF231.3845871228275
aa(lp26
F146.22848038196526
aF230.88451364341245
aa(lp27
F147.19835941878523
aF230.3844401639974
aa(lp28
F148.16823845560521
aF229.8843666845824
aa(lp29
F149.13811749242518
aF229.38429320516735
aa(lp30
F150.10799652924516
aF228.88421972575236
aa(lp31
F151.07787556606513
aF228.38414624633731
aa(lp32
F152.04775460288511
aF227.88407276692226
aa(lp33
F153.01763363970508
aF227.38399928750727
aa(lp34
F153.98751267652506
aF226.88392580809221
aa(lp35
F154.95739171334503
aF226.38385232867728
aa(lp36
F155.92727075016501
aF225.88377884926223
aa(lp37
F156.89714978698504
aF225.38370536984723
aa(lp38
F157.86702882380496
aF224.88363189043218
aa(lp39
F158.83690786062499
aF224.38355841101713
aa(lp40
F159.80678689744497
aF223.88348493160214
aa(lp41
F160.77666593426494
aF223.38341145218709
aa(lp42
F161.74654497108492
aF222.8833379727721
aa(lp43
F162.71642400790489
aF222.38326449335705
aa(lp44
F163.68630304472487
aF221.883191013942
aa(lp45
F164.65618208154484
aF221.383117534527
aa(lp46
F165.62606111836482
aF220.88304405511195
aa(lp47
F166.59594015518479
aF220.38297057569696
aa(lp48
F167.56581919200477
aF219.88289709628197
aa(lp49
F168.53569822882474
aF219.38282361686697
aa(lp50
F169.50557726564472
aF218.88275013745192
aa(lp51
F170.47545630246469
aF218.38267665803687
aa(lp52
F171.44533533928467
aF217.88260317862188
aa(lp53
F172.41521437610464
aF217.38252969920683
aa(lp54
F173.38509341292462
aF216.88245621979183
aa(lp55
F174.35497244974459
aF216.38238274037678
aa(lp56
F175.32485148656457
aF215.88230926096179
aa(lp57
F176.2947305233846
aF215.38223578154674
aa(lp58
F177.26460956020452
aF214.88216230213169
aa(lp59
F177.58468538293198
aF213.91269773667199
aa(lp60
F177.88544819429404
aF212.92928224702013
aa(lp61
F178.33513786390978
aF212.05344538766877
aa(lp62
F179.30501690072975
aF211.55337190825372
aa(lp63
F180.27489593754979
aF211.05329842883873
aa(lp64
F181.2447749743697
aF210.55322494942368
aa(lp65
F182.21465401118974
aF210.05315147000863
aa(lp66
F183.18453304800971
aF209.55307799059364
aa(lp67
F183.89212679961685
aF208.86354042080552
aa(lp68
F184.19288961097891
aF207.88012493115372
aa(lp69
F184.49365242234097
aF206.89670944150186
aa(lp70
F185.22494038853489
aF206.22428759671578
aa(lp71
F186.19481942535486
aF205.72421411730073
aa(lp72
F186.69638716502328
aF204.88585183966245
aa(lp73
F186.99714997638534
aF203.90243635001059
aa(lp74
F187.29791278774741
aF202.91902086035878
aa(lp75
F188.23522676588004
aF202.39542372342277
aa(lp76
F189.20510580270007
aF201.89535024400772
aa(lp77
F190.17498483951999
aF201.39527676459272
aa(lp78
F191.14486387634003
aF200.89520328517767
aa(lp79
F192.11474291316
aF200.39512980576268
aa(lp80
F193.08462194997998
aF199.89505632634763
aa(lp81
F194.05450098679995
aF199.39498284693258
aa(lp82
F195.02438002361993
aF198.89490936751764
aa(lp83
F195.9942590604399
aF198.39483588810259
aa(lp84
F196.96413809725988
aF197.8947624086876
aa(lp85
F197.93401713407985
aF197.39468892927255
aa(lp86
F198.90389617089983
aF196.8946154498575
aa(lp87
F199.8737752077198
aF196.3945419704425
aa(lp88
F200.61171630698919
aF195.72692607504564
aa(lp89
F200.91247911835126
aF194.74351058539378
aa(lp90
F201.21324192971332
aF193.76009509574192
aa(lp91
F201.91418254824504
aF193.06575157656459
aa(lp92
F202.88406158506501
aF192.56567809714954
aa(lp93
F203.41597667239563
aF191.74923749390246
aa(lp94
F203.71673948375769
aF190.76582200425065
aa(lp95
F204.01750229511975
aF189.78240651459879
aa(lp96
F204.92446892559019
aF189.23688770327158
aa(lp97
F205.89434796241022
aF188.73681422385653
aa(lp98
F206.22023703780206
aF187.77154891275944
aa(lp99
F206.52099984916413
aF186.78813342310758
aa(lp100
F206.96487626611543
aF185.90809730939367
aa(lp101
F207.9347553029354
aF185.40802382997862
aa(lp102
F208.72373459184644
aF184.77727582126812
aa(lp103
F209.0244974032085
aF183.79386033161632
aa(lp104
F209.32526021457051
aF182.81044484196445
aa(lp105
F209.97516264346064
aF182.07923343610071
aa(lp106
F210.94504168028061
aF181.57915995668566
aa(lp107
F211.52799495725287
aF180.79958724012505
aa(lp108
F211.82875776861488
aF179.81617175047319
aa(lp109
F212.12952057997694
aF178.83275626082138
aa(lp110
F212.430283391339
aF177.84934077116952
aa(lp111
F212.73104620270112
aF176.86592528151772
aa(lp112
F213.03180901406319
aF175.88250979186591
aa(lp113
F213.33257182542519
aF174.89909430221405
aa(lp114
F213.63333463678725
aF173.91567881256225
aa(lp115
F214.15662659139633
aF173.09300921329691
aa(lp116
F215.12650562821636
aF172.59293573388186
aa(lp117
F216.09638466503634
aF172.09286225446681
aa(lp118
F217.06626370185631
aF171.59278877505182
aa(lp119
F217.73804131078981
aF170.87737909853519
aa(lp120
F218.03880412215187
aF169.89396360888333
aa(lp121
F218.33956693351394
aF168.91054811923152
aa(lp122
F219.10667104238149
aF168.26399838117391
aa(lp123
F220.07655007920147
aF167.76392490175886
aa(lp124
F220.54230167619625
aF166.89969051739212
aa(lp125
F220.84306448755831
aF165.91627502774026
aa(lp126
F221.14707838290673
aF164.93520798729594
aa(lp127
F222.1169574197267
aF164.43513450788095
aa(lp128
F223.04579923024062
aF163.90541742590085
aa(lp129
F223.34656204160268
aF162.92200193624899
aa(lp130
F223.64732485296474
aF161.93858644659718
aa(lp131
F224.15736476025194
aF161.10634411400304
aa(lp132
F225.12724379707191
aF160.60627063458799
aa(lp133
F225.85005959564705
aF159.92772884475778
aa(lp134
F226.15082240700912
aF158.94431335510592
aa(lp135
F226.45158521837118
aF157.96089786545406
aa(lp136
F226.75234802973318
aF156.97748237580225
aa(lp137
F227.05311084109525
aF155.99406688615039
aa(lp138
F227.35387365245731
aF155.01065139649864
aa(lp139
F227.65463646381937
aF154.02723590684678
aa(lp140
F227.95539927518149
aF153.04382041719492
aa(lp141
F228.33882870818763
aF152.12011989119918
aa(lp142
F229.30870774500761
aF151.62004641178419
aa(lp143
F230.15813401786374
aF151.03296281535552
aa(lp144
F230.45889682922586
aF150.04954732570371
aa(lp145
F230.75965964058787
aF149.06613183605185
aa(lp146
F231.34911508553279
aF148.29125601790622
aa(lp147
F232.31899412235276
aF147.79118253849123
aa(lp148
F232.96239438327018
aF147.05527423421239
aa(lp149
F233.2631571946323
aF146.07185874456053
aa(lp150
F233.56392000599431
aF145.08844325490873
aa(lp151
F233.86468281735637
aF144.10502776525686
aa(lp152
F234.16544562871849
aF143.121612275605
aa(lp153
F234.46620844008049
aF142.1381967859532
aa(lp154
F234.76697125144256
aF141.15478129630139
aa(lp155
F235.06773406280462
aF140.17136580664953
aa(lp156
F235.53057903346854
aF139.30503179510248
aa(lp157
F236.50045807028846
aF138.80495831568743
aa(lp158
F237.27046880548693
aF138.16050820481013
aa(lp159
F237.57123161684899
aF137.17709271515832
aa(lp160
F237.87199442821105
aF136.19367722550646
aa(lp161
F237.70772372569326
aF135.26127599248895
aa(lp162
F237.16318753575894
aF134.37058994899053
aa(lp163
F237.13142034593318
aF133.42365305779003
aa(lp164
F237.43218315729519
aF132.44023756813817
aa(lp165
F237.7329459686573
aF131.45682207848631
aa(lp166
F238.03370878001925
aF130.47340658883456
aa(lp167
F238.33447159138137
aF129.4899910991827
aa(lp168
F238.63523440274344
aF128.50657560953084
aa(lp169
F238.9359972141055
aF127.52316011987904
aa(lp170
F239.23676002546756
aF126.53974463022718
aa(lp171
F239.23243718161984
aF125.589797089542
aa(lp172
F238.68790099168558
aF124.69911104604364
aa(lp173
F238.49618594318963
aF123.76972046251075
aa(lp174
F238.79694875455169
aF122.78630497285894
aa(lp175
F239.09771156591376
aF121.80288948320708
aa(lp176
F239.39847437727587
aF120.81947399355528
aa(lp177
F239.69923718863788
aF119.83605850390342
aa(lp178
F240
aF118.85264301425156
aa(lp179
F239.52286456565849
aF117.9545630962462
aa(lp180
F238.97832837572429
aF117.0638770527479
aa(lp181
F239.25942591772207
aF116.08261884653513
aa(lp182
F239.56018872908408
aF115.09920335688332
aa(lp183
F239.66807825767785
aF114.13694609959833
aa(lp184
F239.12354206774364
aF113.24626005609997
aa(lp185
F238.8196146468062
aF112.32917918916689
aa(lp186
F239.12037745816821
aF111.34576369951509
aa(lp187
F239.42114026953027
aF110.36234820986323
aa(lp188
F239.26875575976294
aF109.4286430594521
aa(lp189
F238.72421956982868
aF108.53795701595368
aa(lp190
F238.6805661872524
aF107.5923240421468
aa(lp191
F238.98132899861446
aF106.60890855249494
aa(lp192
F239.28209180997646
aF105.62549306284308
aa(lp193
F238.86943326184803
aF104.72034001930581
aa(lp194
F238.32489707191371
aF103.82965397580739
aa(lp195
F238.54151772769859
aF102.85546889512671
aa(lp196
F238.84228053906065
aF101.87205340547484
aa(lp197
F239.14304335042272
aF100.88863791582304
aa(lp198
F239.44380616178478
aF99.905222426171179
aa(lp199
F239.74456897314684
aF98.921806936519317
aa(lp200
F239.704396835821
aF97.975792069508373
aa(lp201
F239.15986064588668
aF97.08510602601001
aa(lp202
F238.61532445595242
aF96.19441998251159
aa(lp203
F238.0707882660181
aF95.303733939013227
aa(lp204
F237.52625207608384
aF94.413047895514865
aa(lp205
F236.98171588614952
aF93.522361852016502
aa(lp206
F236.4371796962152
aF92.631675808518082
aa(lp207
F235.89264350628093
aF91.740989765019663
aa(lp208
F235.87998420994899
aF90.791956734609073
aa(lp209
F236.18074702131111
aF89.808541244957212
aa(lp210
F236.48150983267311
aF88.825125755305351
aa(lp211
F236.03785719830029
aF87.923372768371792
aa(lp212
F235.49332100836597
aF87.032686724873372
aa(lp213
F234.9487848184317
aF86.142000681375009
aa(lp214
F234.40424862849738
aF85.251314637876646
aa(lp215
F233.85971243856312
aF84.360628594378284
aa(lp216
F233.31517624862886
aF83.469942550879864
aa(lp217
F232.77064005869454
aF82.579256507381501
aa(lp218
F232.31616225811331
aF81.678691043046967
aa(lp219
F232.61692506947537
aF80.695275553395106
aa(lp220
F232.91768788083738
aF79.711860063743245
aa(lp221
F232.91585375071389
aF78.761639510733573
aa(lp222
F232.37131756077963
aF77.870953467235154
aa(lp223
F231.82678137084531
aF76.980267423736791
aa(lp224
F231.28224518091105
aF76.089581380238371
aa(lp225
F230.73770899097673
aF75.198895336740065
aa(lp226
F230.19317280104246
aF74.308209293241617
aa(lp227
F229.64863661110815
aF73.417523249743283
aa(lp228
F229.10410042117388
aF72.526837206244863
aa(lp229
F228.55956423123956
aF71.636151162746472
aa(lp230
F228.0150280413053
aF70.745465119248109
aa(lp231
F227.47049185137098
aF69.854779075749718
aa(lp232
F226.92595566143666
aF68.964093032251327
aa(lp233
F226.3814194715024
aF68.073406988752936
aa(lp234
F225.83688328156808
aF67.182720945254573
aa(lp235
F225.29234709163381
aF66.292034901756153
aa(lp236
F224.74781090169955
aF65.401348858257791
aa(lp237
F224.20327471176523
aF64.510662814759399
aa(lp238
F223.65873852183097
aF63.619976771261008
aa(lp239
F223.11420233189665
aF62.729290727762617
aa(lp240
F222.56966614196239
aF61.838604684264226
aa(lp241
F222.02512995202807
aF60.947918640765863
aa(lp242
F221.4805937620938
aF60.057232597267472
aa(lp243
F220.93605757215954
aF59.166546553769081
aa(lp244
F220.39152138222522
aF58.275860510270689
aa(lp245
F219.84698519229096
aF57.385174466772327
aa(lp246
F219.30244900235664
aF56.494488423273907
aa(lp247
F218.75791281242238
aF55.603802379775516
aa(lp248
F218.21337662248806
aF54.713116336277153
aa(lp249
F217.66884043255379
aF53.822430292778762
aa(lp250
F217.12430424261947
aF52.931744249280371
aa(lp251
F216.57976805268515
aF52.041058205781979
aa(lp252
F216.03523186275089
aF51.150372162283617
aa(lp253
F215.49069567281657
aF50.259686118785226
aa(lp254
F214.94615948288231
aF49.369000075286834
aa(lp255
F214.40162329294805
aF48.478314031788443
aa(lp256
F213.85708710301373
aF47.58762798829008
aa(lp257
F213.31255091307946
aF46.696941944791661
aa(lp258
F212.7680147231452
aF45.80625590129327
aa(lp259
F212.22347853321088
aF44.915569857794907
aa(lp260
F211.67894234327662
aF44.024883814296516
aa(lp261
F211.1344061533423
aF43.134197770798124
aa(lp262
F210.58986996340803
aF42.243511727299733
aa(lp263
F210.04533377347371
aF41.35282568380137
aa(lp264
F209.50079758353945
aF40.462139640302951
aa(lp265
F208.95626139360513
aF39.571453596804588
aa(lp266
F208.41172520367087
aF38.680767553306197
aa(lp267
F207.86718901373655
aF37.790081509807834
aa(lp268
F207.32265282380229
aF36.899395466309414
aa(lp269
F206.77811663386797
aF36.008709422811023
aa(lp270
F206.2335804439337
aF35.11802337931266
aa(lp271
F205.68904425399938
aF34.227337335814269
aa(lp272
F205.14450806406512
aF33.336651292315878
aa(lp273
F204.5999718741308
aF32.445965248817515
aa(lp274
F204.05543568419654
aF31.555279205319124
aa(lp275
F203.51089949426222
aF30.664593161820704
aa(lp276
F202.96636330432796
aF29.773907118322342
aa(lp277
F202.42182711439369
aF28.88322107482395
aa(lp278
F201.87729092445937
aF27.992535031325559
aa(lp279
F201.33275473452511
aF27.101848987827168
aa(lp280
F200.78821854459079
aF26.211162944328777
aa(lp281
F200.24368235465647
aF25.320476900830414
aa(lp282
F199.69914616472221
aF24.429790857332023
aa(lp283
F199.06773019563082
aF23.640537955044095
aa(lp284
F197.99687691926067
aF23.364333162164087
aa(lp285
F196.92602364289058
aF23.088128369284078
aa(lp286
F196.07438517901153
aF22.555987762034476
aa(lp287
F195.52984898907727
aF21.665301718536085
aa(lp288
F194.73637595694066
aF21.065252300873595
aa(lp289
F193.66552268057052
aF20.789047507993587
aa(lp290
F192.59466940420043
aF20.512842715113578
aa(lp291
F191.90508800336659
aF19.791498623238539
aa(lp292
F191.36055181343232
aF18.900812579740176
aa(lp293
F190.816015623498
aF18.010126536241785
aa(lp294
F190.27147943356374
aF17.119440492743394
aa(lp295
F189.72694324362942
aF16.228754449245002
aa(lp296
F189.18240705369516
aF15.33806840574664
aa(lp297
F188.16743289909078
aF14.996624095642119
aa(lp298
F187.0965796227207
aF14.72041930276211
aa(lp299
F186.1021822579188
aF14.354951353947456
aa(lp300
F185.55764606798454
aF13.464265310449093
aa(lp301
F184.90693193677077
aF12.697543234351656
aa(lp302
F183.83607866040069
aF12.421338441471619
aa(lp303
F182.76522538403054
aF12.14513364859161
aa(lp304
F181.93288508227386
aF11.590462215151547
aa(lp305
F181.38834889233954
aF10.699776171653156
aa(lp306
F180.84381270240527
aF9.8090901281547644
aa(lp307
F180.29927651247095
aF8.9184040846564017
aa(lp308
F179.45678328850079
aF8.3755863046506818
aa(lp309
F178.38593001213064
aF8.0993815117706731
aa(lp310
F177.31507673576061
aF7.8231767188906645
aa(lp311
F176.24422345939047
aF7.5469719260106558
aa(lp312
F175.17337018302038
aF7.2707671331306472
aa(lp313
F174.10251690665029
aF6.9945623402506385
aa(lp314
F173.03166363028015
aF6.7183575473706583
aa(lp315
F171.96081035391006
aF6.4421527544906212
aa(lp316
F171.05860212514187
aF5.969052929258936
aa(lp317
F170.51406593520761
aF5.0783668857605448
aa(lp318
F169.77116266796014
aF4.4192766860801385
aa(lp319
F168.70030939159005
aF4.1430718932001582
aa(lp320
F167.62945611521991
aF3.8668671003201212
aa(lp321
F166.55860283884982
aF3.5906623074401125
aa(lp322
F165.48774956247973
aF3.3144575145601038
aa(lp323
F164.41689628610965
aF3.0382527216800952
aa(lp324
F163.3460430097395
aF2.7620479288000865
aa(lp325
F162.27518973336942
aF2.4858431359200779
aa(lp326
F161.20433645699933
aF2.2096383430400692
aa(lp327
F160.13348318062924
aF1.9334335501600606
aa(lp328
F159.06262990425915
aF1.6572287572800803
aa(lp329
F157.99177662788901
aF1.3810239644000717
aa(lp330
F156.92092335151892
aF1.1048191715200346
aa(lp331
F155.85007007514884
aF0.82861437864002596
aa(lp332
F154.77921679877869
aF0.55240958576001731
aa(lp333
F153.7083635224086
aF0.27620479288000865
aa(lp334
F152.63751024603852
aF0
aa(lp335
F151.65607088871383
aF0.41119907274898537
aa(lp336
F150.68619185189385
aF0.91127255216403569
aa(lp337
F149.6211967073188
aF0.68010439881689422
aa(lp338
F148.55034343094871
aF0.40389960593688556
aa(lp339
F147.4990205759982
aF0.27784243352255089
aa(lp340
F146.52914153917823
aF0.77791591293757278
aa(lp341
F145.534029892229
aF1.0840040047538082
aa(lp342
F144.46317661585886
aF0.80779921187379955
aa(lp343
F143.39232333948877
aF0.5315944189937909
aa(lp344
F142.37209122646254
aF0.6445592737111383
aa(lp345
F141.40221218964257
aF1.1446327531261602
aa(lp346
F140.37600980076905
aF1.2116988178106851
aa(lp347
F139.30515652439897
aF0.93549402493067646
aa(lp348
F138.23430324802888
aF0.65928923205063938
aa(lp349
F137.24516187692694
aF1.0112761138996689
aa(lp350
F136.27528284010697
aF1.5113495933146908
aa(lp351
F135.30540380328699
aF2.0114230727296842
aa(lp352
F134.33552476646702
aF2.5114965521447346
aa(lp353
F133.36564572964704
aF3.0115700315597564
aa(lp354
F132.39576669282701
aF3.5116435109747783
aa(lp355
F131.42588765600703
aF4.0117169903898002
aa(lp356
F130.45246219863037
aF4.4845259988382509
aa(lp357
F129.38160892226028
aF4.2083212059582422
aa(lp358
F128.3107556458902
aF3.9321164130782336
aa(lp359
F127.26883734329139
aF3.8783603511633657
aa(lp360
F126.29895830647142
aF4.3784338305783876
aa(lp361
F125.32907926965144
aF4.8785073099934095
aa(lp362
F124.35920023283147
aF5.3785807894084314
aa(lp363
F123.38932119601149
aF5.8786542688234533
aa(lp364
F122.41944215919152
aF6.3787277482384752
aa(lp365
F121.40352158247121
aF6.5248391952889335
aa(lp366
F120.3326683061011
aF6.2486344024088964
aa(lp367
F119.26181502973104
aF5.9724296095288878
aa(lp368
F118.26239184647586
aF6.2453711090120407
aa(lp369
F117.29251280965586
aF6.7454445884270626
aa(lp370
F116.32263377283589
aF7.2455180678420845
aa(lp371
F115.35275473601591
aF7.745591547257078
aa(lp372
F114.38287569919594
aF8.2456650266721283
aa(lp373
F113.41299666237596
aF8.7457385060871502
aa(lp374
F112.44311762555598
aF9.2458119855021721
aa(lp375
F111.47323858873601
aF9.745885464917194
aa(lp376
F110.50335955191603
aF10.245958944332187
aa(lp377
F109.53348051509606
aF10.746032423747209
aa(lp378
F108.56360147827606
aF11.246105903162231
aa(lp379
F107.59372244145608
aF11.746179382577282
aa(lp380
F106.6238434046361
aF12.246252861992303
aa(lp381
F105.65396436781613
aF12.746326341407325
aa(lp382
F104.68408533099615
aF13.246399820822347
aa(lp383
F103.71420629417618
aF13.746473300237369
aa(lp384
F102.7443272573562
aF14.246546779652391
aa(lp385
F101.77444822053623
aF14.746620259067441
aa(lp386
F100.80456918371625
aF15.246693738482463
aa(lp387
F99.83469014689625
aF15.746767217897485
aa(lp388
F98.864811110076303
aF16.246840697312507
aa(lp389
F97.8949320732563
aF16.746914176727529
aa(lp390
F96.925053036436324
aF17.246987656142551
aa(lp391
F95.955173999616349
aF17.747061135557573
aa(lp392
F94.985294962796374
aF18.247134614972595
aa(lp393
F94.015415925976399
aF18.747208094387616
aa(lp394
F93.045536889156423
aF19.247281573802638
aa(lp395
F92.075657852336448
aF19.74735505321766
aa(lp396
F91.105778815516445
aF20.247428532632682
aa(lp397
F90.135899778696469
aF20.747502012047704
aa(lp398
F89.166020741876494
aF21.247575491462726
aa(lp399
F88.196141705056519
aF21.747648970877748
aa(lp400
F87.226262668236544
aF22.24772245029277
aa(lp401
F86.256383631416568
aF22.747795929707792
aa(lp402
F85.286504594596593
aF23.247869409122814
aa(lp403
F84.316625557776604
aF23.747942888537864
aa(lp404
F83.346746520956629
aF24.248016367952886
aa(lp405
F82.376867484136653
aF24.748089847367908
aa(lp406
F81.406988447316664
aF25.24816332678293
aa(lp407
F80.437109410496689
aF25.748236806197951
aa(lp408
F79.467230373676713
aF26.248310285612973
aa(lp409
F78.497351336856738
aF26.748383765028024
aa(lp410
F77.527472300036749
aF27.248457244443046
aa(lp411
F76.557593263216773
aF27.748530723858039
aa(lp412
F75.587714226396798
aF28.248604203273061
aa(lp413
F74.617835189576823
aF28.748677682688083
aa(lp414
F73.647956152756848
aF29.248751162103105
aa(lp415
F72.678077115936873
aF29.748824641518127
aa(lp416
F71.708198079116883
aF30.248898120933177
aa(lp417
F70.738319042296908
aF30.74897160034817
aa(lp418
F69.768440005476933
aF31.249045079763192
aa(lp419
F68.798560968656943
aF31.749118559178214
aa(lp420
F67.828681931836968
aF32.249192038593236
aa(lp421
F66.858802895016993
aF32.749265518008258
aa(lp422
F65.888923858197018
aF33.249338997423308
aa(lp423
F64.919044821377042
aF33.74941247683833
aa(lp424
F63.949165784557067
aF34.249485956253352
aa(lp425
F62.979286747737092
aF34.749559435668374
aa(lp426
F62.009407710917102
aF35.249632915083396
aa(lp427
F61.039528674097127
aF35.749706394498418
aa(lp428
F60.069649637277152
aF36.249779873913468
aa(lp429
F59.099770600457163
aF36.74985335332849
aa(lp430
F58.129891563637187
aF37.249926832743512
aa(lp431
F57.160012526817212
aF37.750000312158505
aa(lp432
F56.190133489997237
aF38.250073791573527
aa(lp433
F55.220254453177262
aF38.750147270988549
aa(lp434
F54.250375416357286
aF39.250220750403599
aa(lp435
F53.280496379537311
aF39.750294229818621
aa(lp436
F52.310617342717322
aF40.250367709233643
aa(lp437
F51.340738305897347
aF40.750441188648637
aa(lp438
F50.370859269077371
aF41.250514668063659
aa(lp439
F49.400980232257368
aF41.75058814747868
aa(lp440
F48.431101195437392
aF42.250661626893731
aa(lp441
F47.461222158617417
aF42.750735106308753
aa(lp442
F46.491343121797442
aF43.250808585723775
aa(lp443
F45.521464084977467
aF43.750882065138796
aa(lp444
F44.551585048157492
aF44.250955544553818
aa(lp445
F43.581706011337516
aF44.75102902396884
aa(lp446
F42.611826974517527
aF45.251102503383891
aa(lp447
F41.641947937697552
aF45.751175982798912
aa(lp448
F40.672068900877576
aF46.251249462213934
aa(lp449
F39.75519805334784
aF46.789613874946241
aa(lp450
F39.454435241985777
aF47.773029364598074
aa(lp451
F39.153672430623715
aF48.756444854249935
aa(lp452
F38.631661560352384
aF49.580039856091844
aa(lp453
F37.661782523532409
aF50.080113335506866
aa(lp454
F36.950937687941433
aF50.76730245608934
aa(lp455
F36.650174876579385
aF51.750717945741172
aa(lp456
F36.349412065217322
aF52.734133435393005
aa(lp457
F35.621375183007189
aF53.408903729384832
aa(lp458
F34.651496146187213
aF53.908977208799826
aa(lp459
F33.681617109367238
aF54.409050688214847
aa(lp460
F32.711738072547263
aF54.909124167629869
aa(lp461
F31.741859035727288
aF55.409197647044891
aa(lp462
F30.771979998907298
aF55.909271126459942
aa(lp463
F29.802100962087323
aF56.409344605874963
aa(lp464
F28.832221925267348
aF56.909418085289985
aa(lp465
F27.862342888447373
aF57.409491564705007
aa(lp466
F26.892463851627397
aF57.909565044120029
aa(lp467
F25.922584814807394
aF58.409638523535051
aa(lp468
F24.952705777987418
aF58.909712002950101
aa(lp469
F24.636817665933748
aF59.88220159817044
aa(lp470
F24.336054854571671
aF60.865617087822272
aa(lp471
F23.882177474282187
aF61.738428917412989
aa(lp472
F22.912298437462212
aF62.238502396828011
aa(lp473
F21.942419400642237
aF62.738575876243033
aa(lp474
F20.972540363822262
aF63.238649355658055
aa(lp475
F20.231348180569121
aF63.903916801849277
aa(lp476
F19.930585369207066
aF64.88733229150111
aa(lp477
F19.62982255784501
aF65.870747781152943
aa(lp478
F18.932133023297084
aF66.567439749535993
aa(lp479
F17.962253986477108
aF67.067513228951015
aa(lp480
F16.992374949657133
aF67.567586708366036
aa(lp481
F16.022495912837144
aF68.06766018778103
aa(lp482
F15.52511588384246
aF68.909047495179948
aa(lp483
F15.224353072480405
aF69.892462984831752
aa(lp484
F14.923590261118349
aF70.875878474483585
aa(lp485
F13.982088572311916
aF71.396450581658996
aa(lp486
F13.012209535491969
aF71.896524061074018
aa(lp487
F12.042330498671966
aF72.39659754048904
aa(lp488
F11.07245146185199
aF72.896671019904062
aa(lp489
F10.102572425032015
aF73.396744499319084
aa(lp490
F9.2176744671575648
aF73.958204811046414
aa(lp491
F8.9169116557955093
aF74.941620300698247
aa(lp492
F8.6161488444334537
aF75.92503579035008
aa(lp493
F8.0621650845067876
aF76.725534893196993
aa(lp494
F7.0922860476868124
aF77.225608372612044
aa(lp495
F6.4134141017511652
aF77.935893392189485
aa(lp496
F6.1126512903891097
aF78.919308881841346
aa(lp497
F5.8118884790270542
aF79.902724371493207
aa(lp498
F5.5111256676649631
aF80.886139861145011
aa(lp499
F5.2103628563029076
aF81.869555350796816
aa(lp500
F4.9096000449408521
aF82.85297084044862
aa(lp501
F4.6088372335787966
aF83.836386330100481
aa(lp502
F4.3080744222167411
aF84.819801819752342
aa(lp503
F3.880701136571119
aF85.711759116000849
aa(lp504
F2.9108220997511154
aF86.211832595415785
aa(lp505
F2.1053396795344241
aF86.830659421591747
aa(lp506
F1.8045768681723686
aF87.814074911243551
aa(lp507
F1.5038140568103131
aF88.797490400895413
aa(lp508
F1.2030512454482505
aF89.780905890547274
aa(lp509
F0.90228843408619497
aF90.764321380199078
aa(lp510
F0.60152562272413945
aF91.747736869850939
aa(lp511
F0.30076281136205552
aF92.731152359502801
aa(lp512
F0
aF93.714567849154605
aa.