(lp1
I12
aI6
aI3
aI9
aI1
aI0
aI0
aI10
aI0
aI0
aI0
aI10
aI0
aI0
aI0
aI10
a.(lp1
I0
aI0
aI8
aI12
aI6
aI3
aI3
aI9
aI12
aI12
aI3
aI0
aI0
aI0
aI0
aI10
aI3
aI0
aI0
aI0
aI0
aI0
aI0
aI10
aI0
aI0
aI0
aI0
aI0
aI0
aI0
aI10
aI0
aI0
aI0
aI0
aI0
aI0
aI0
aI10
aI0
aI0
aI0
aI0
aI0
aI0
aI0
aI6
aI0
aI0
aI0
aI0
aI0
aI0
aI0
aI5
aI0
aI0
aI0
aI0
aI0
aI0
aI0
aI9
a.(lp1
(lp2
F226.23198607888409
aF240
aa(lp3
F225.47103392954293
aF239.77586874132481
aa(lp4
F224.71008178020176
aF239.5517374826498
aa(lp5
F224.13486347646557
aF238.73273290219936
aa(lp6
F223.67865333560627
aF237.5325657989016
aa(lp7
F223.22244319474697
aF236.33239869560373
aa(lp8
F222.89708674770901
aF235.06977823502433
aa(lp9
F223.01286032855481
aF233.59661689910166
aa(lp10
F223.12863390940061
aF232.12345556317899
aa(lp11
F223.24440749024643
aF230.65029422725621
aa(lp12
F223.36018107109223
aF229.17713289133354
aa(lp13
F223.21986058009907
aF227.826199167786
aa(lp14
F222.76365043923974
aF226.62603206448813
aa(lp15
F222.74064705305196
aF225.21910567579164
aa(lp16
F222.85642063389776
aF223.74594433986891
aa(lp17
F222.97219421474355
aF222.27278300394613
aa(lp18
F223.08796779558938
aF220.79962166802341
aa(lp19
F223.20374137643518
aF219.32646033210079
aa(lp20
F223.31951495728097
aF217.85329899617801
aa(lp21
F223.43528853812677
aF216.38013766025529
aa(lp22
F223.5510621189726
aF214.90697632433256
aa(lp23
F223.66683569981836
aF213.43381498840989
aa(lp24
F223.78260928066419
aF211.96065365248717
aa(lp25
F223.89838286151002
aF210.48749231656444
aa(lp26
F224.01415644235576
aF209.01433098064177
aa(lp27
F224.12993002320161
aF207.54116964471905
aa(lp28
F224.24570360404741
aF206.06800830879632
aa(lp29
F224.36147718489323
aF204.59484697287354
aa(lp30
F224.47725076573903
aF203.12168563695093
aa(lp31
F224.5930243465848
aF201.64852430102815
aa(lp32
F224.70879792743062
aF200.17536296510542
aa(lp33
F224.82457150827645
aF198.70220162918275
aa(lp34
F224.57816054408528
aF197.40190236640825
aa(lp35
F224.12195040322598
aF196.20173526311038
aa(lp36
F224.20503749023618
aF194.74417441364074
aa(lp37
F224.32081107108198
aF193.27101307771807
aa(lp38
F224.43658465192777
aF191.79785174179534
aa(lp39
F224.55235823277357
aF190.32469040587256
aa(lp40
F224.6681318136194
aF188.85152906994983
aa(lp41
F224.78390539446519
aF187.37836773402717
aa(lp42
F224.89967897531099
aF185.90520639810444
aa(lp43
F225.01545255615682
aF184.43204506218171
aa(lp44
F225.13122613700261
aF182.95888372625905
aa(lp45
F225.02920545564874
aF181.58967041407038
aa(lp46
F224.57299531478944
aF180.38950331077251
aa(lp47
F224.51169211896234
aF179.00085651071703
aa(lp48
F224.62746569980817
aF177.52769517479436
aa(lp49
F224.57170400746548
aF176.13640354686362
aa(lp50
F224.11549386660619
aF174.93623644356586
aa(lp51
F224.00793168176787
aF173.56966795925234
aa(lp52
F224.12370526261367
aF172.09650662332967
aa(lp53
F224.23947884345949
aF170.62334528740695
aa(lp54
F224.35525242430529
aF169.15018395148417
aa(lp55
F224.47102600515109
aF167.67702261556155
aa(lp56
F224.58679958599689
aF166.20386127963883
aa(lp57
F224.70257316684271
aF164.7306999437161
aa(lp58
F224.81834674768851
aF163.25753860779332
aa(lp59
F224.93412032853431
aF161.78437727187065
aa(lp60
F225.04989390938013
aF160.31121593594793
aa(lp61
F225.16566749022593
aF158.83805460002515
aa(lp62
F225.28144107107173
aF157.36489326410253
aa(lp63
F225.39721465191752
aF155.89173192817981
aa(lp64
F225.51298823276335
aF154.41857059225708
aa(lp65
F225.62876181360915
aF152.9454092563343
aa(lp66
F225.74453539445497
aF151.47224792041163
aa(lp67
F225.86030897530074
aF149.99908658448891
aa(lp68
F226.41767803869286
aF149.04267123019014
aa(lp69
F226.94407349183965
aF148.05001119209538
aa(lp70
F227.05984707268547
aF146.57684985617266
aa(lp71
F227.17562065353124
aF145.10368852024999
aa(lp72
F226.83665580515802
aF143.84756302611595
aa(lp73
F226.44031305464517
aF142.6188226406307
aa(lp74
F226.55608663549097
aF141.14566130470803
aa(lp75
F226.67186021633682
aF139.6724999687853
aa(lp76
F226.37915435697474
aF138.39429615890924
aa(lp77
F225.9365526174507
aF137.18763408916601
aa(lp78
F226.0523261982965
aF135.71447275324334
aa(lp79
F226.16809977914232
aF134.24131141732062
aa(lp80
F226.28387335998812
aF132.76815008139789
aa(lp81
F226.39964694083392
aF131.29498874547522
aa(lp82
F226.63780636936713
aF129.9650408197881
aa(lp83
F227.25774507842308
aF129.08184318226034
aa(lp84
F227.59918503821862
aF127.87275201715892
aa(lp85
F227.71495861906442
aF126.39959068123619
aa(lp86
F227.73814240956852
aF124.9706202511104
aa(lp87
F227.2819322687092
aF123.77045314781259
aa(lp88
F227.09542460102415
aF122.44156346569429
aa(lp89
F227.21119818187
aF120.9684021297715
aa(lp90
F227.28064096138527
aF119.5173533839037
aa(lp91
F226.82443082052598
aF118.31718628060588
aa(lp92
F226.59166416382968
aF117.01037491422954
aa(lp93
F226.7074377446755
aF115.53721357830682
aa(lp94
F226.8232113255213
aF114.06405224238415
aa(lp95
F226.9389849063671
aF112.59089090646142
aa(lp96
F227.05475848721289
aF111.1177295705387
aa(lp97
F227.17053206805872
aF109.64456823461603
aa(lp98
F227.28630564890452
aF108.17140689869331
aa(lp99
F227.40207922975031
aF106.69824556277058
aa(lp100
F227.51785281059617
aF105.22508422684791
aa(lp101
F227.63362639144194
aF103.75192289092519
aa(lp102
F228.16713227174756
aF102.76758332893854
aa(lp103
F228.71739090798081
aF101.80284749853166
aa(lp104
F228.83316448882661
aF100.32968616260894
aa(lp105
F228.94893806967244
aF98.856524826686268
aa(lp106
F229.06471165051823
aF97.383363490763543
aa(lp107
F229.18048523136403
aF95.910202154840817
aa(lp108
F229.29625881220983
aF94.437040818918149
aa(lp109
F229.41203239305565
aF92.963879482995424
aa(lp110
F229.52780597390145
aF91.490718147072698
aa(lp111
F229.64357955474725
aF90.01755681115003
aa(lp112
F229.75935313559305
aF88.544395475227304
aa(lp113
F229.87512671643887
aF87.071234139304579
aa(lp114
F229.99090029728467
aF85.59807280338191
aa(lp115
F230.00051159261315
aF84.175580202545007
aa(lp116
F229.54430145175385
aF82.975413099247191
aa(lp117
F229.37136627924437
aF81.640045587839893
aa(lp118
F229.48713986009017
aF80.166884251917224
aa(lp119
F229.60291344093599
aF78.693722915994499
aa(lp120
F229.71868702178185
aF77.220561580071774
aa(lp121
F229.83446060262762
aF75.747400244149105
aa(lp122
F230.31031294823819
aF74.69559569767415
aa(lp123
F230.91822511916646
aF73.798324851755581
aa(lp124
F231.03399870001226
aF72.325163515832855
aa(lp125
F231.14977228085812
aF70.85200217991013
aa(lp126
F231.26554586170388
aF69.378840843987462
aa(lp127
F231.38131944254968
aF67.905679508064736
aa(lp128
F231.49709302339554
aF66.432518172142011
aa(lp129
F231.61286660424133
aF64.959356836219285
aa(lp130
F231.7286401850871
aF63.48619550029656
aa(lp131
F231.84441376593293
aF62.013034164373835
aa(lp132
F231.9601873467787
aF60.539872828451166
aa(lp133
F232.30876938259456
aF59.339139174306752
aa(lp134
F232.92870809165052
aF58.455941536779051
aa(lp135
F233.15972544416343
aF57.11763610013486
aa(lp136
F233.2754990250092
aF55.644474764212191
aa(lp137
F233.39127260585502
aF54.171313428289466
aa(lp138
F233.50704618670085
aF52.69815209236674
aa(lp139
F233.62281976754662
aF51.224990756444072
aa(lp140
F233.73859334839244
aF49.751829420521346
aa(lp141
F233.85436692923821
aF48.278668084598621
aa(lp142
F234.27256574015382
aF47.159398553635413
aa(lp143
F234.89250444920981
aF46.276200916107655
aa(lp144
F235.05390502662289
aF44.856431356282371
aa(lp145
F235.16967860746871
aF43.383270020359703
aa(lp146
F235.54710323506282
aF42.216287375883894
aa(lp147
F236.16704194411881
aF41.333089738356136
aa(lp148
F236.36921670485339
aF39.961033292043453
aa(lp149
F236.48499028569921
aF38.487871956120728
aa(lp150
F236.60076386654504
aF37.014710620198002
aa(lp151
F236.71653744739081
aF35.541549284275277
aa(lp152
F236.83231102823663
aF34.068387948352552
aa(lp153
F236.94808460908246
aF32.595226612429883
aa(lp154
F237.06385818992823
aF31.122065276507158
aa(lp155
F237.17963177077405
aF29.648903940584432
aa(lp156
F237.29540535161982
aF28.175742604661707
aa(lp157
F237.54555966941922
aF26.859830852516552
aa(lp158
F238.16549837847515
aF25.976633214988794
aa(lp159
F238.49494344900455
aF24.753505876345514
aa(lp160
F238.61071702985032
aF23.280344540422789
aa(lp161
F238.72649061069615
aF21.807183204500063
aa(lp162
F238.84226419154197
aF20.334021868577395
aa(lp163
F238.95803777238774
aF18.860860532654669
aa(lp164
F239.07381135323357
aF17.387699196731944
aa(lp165
F239.18958493407933
aF15.914537860809276
aa(lp166
F239.30535851492516
aF14.44137652488655
aa(lp167
F239.42113209577099
aF12.968215188963825
aa(lp168
F239.53690567661675
aF11.495053853041128
aa(lp169
F239.65267925746258
aF10.021892517118374
aa(lp170
F239.76845283830841
aF8.5487311811956772
aa(lp171
F239.88422641915417
aF7.0755698452729519
aa(lp172
F240
aF5.6024085093502549
aa(lp173
F239.98246630497732
aF4.1928715670913164
aa(lp174
F239.52625616411802
aF2.9927044637934728
aa(lp175
F239.07004602325873
aF1.7925373604956576
aa(lp176
F238.61383588239943
aF0.59237025719784242
aa(lp177
F237.89787765650982
aF0.22413125867512917
aa(lp178
F237.13692550716866
aF0
aa(lp179
F236.44109802084063
aF0.28726978979267415
aa(lp180
F235.82115931178464
aF1.1704674273204034
aa(lp181
F235.09243163988219
aF1.1993836438414291
aa(lp182
F234.33147949054103
aF0.97525238516629997
aa(lp183
F233.62424759017625
aF1.1729673269844056
aa(lp184
F233.00430888112032
aF2.0561649645121918
aa(lp185
F232.28698562325454
aF2.1746360290077575
aa(lp186
F231.52603347391337
aF1.9505047703325999
aa(lp187
F230.80739715951191
aF2.0586648641761656
aa(lp188
F230.18745845045598
aF2.9418625017039233
aa(lp189
F229.48153960662691
aF3.1498884141740575
aa(lp190
F228.72058745728575
aF2.9257571554989283
aa(lp191
F227.99054672884756
aF2.9443624013678971
aa(lp192
F227.37060801979163
aF3.8275600388956548
aa(lp193
F226.67609358999925
aF4.1251407993403291
aa(lp194
F225.91514144065812
aF3.9010095406652283
aa(lp195
F225.15418929131692
aF3.6768782819901276
aa(lp196
F224.39323714197576
aF3.4527470233150268
aa(lp197
F223.6322849926346
aF3.2286157646399261
aa(lp198
F222.87133284329343
aF3.0044845059648253
aa(lp199
F222.11038069395224
aF2.780353247289753
aa(lp200
F221.39981156402234
aF2.9518621003599321
aa(lp201
F220.77987285496638
aF3.8350597378876614
aa(lp202
F220.0658868266658
aF3.9797368911311253
aa(lp203
F219.30493467732461
aF3.7556056324560245
aa(lp204
F218.54398252798345
aF3.5314743737808669
aa(lp205
F217.78303037864228
aF3.307343115105823
aa(lp206
F217.02207822930112
aF3.0832118564306938
aa(lp207
F216.38604941174961
aF3.840059537215609
aa(lp208
F215.73853651135582
aF4.5067267589472237
aa(lp209
F214.97758436201465
aF4.282595500272123
aa(lp210
F214.21663221267346
aF4.0584642415970222
aa(lp211
F213.56919898108524
aF4.7257570744073973
aa(lp212
F212.94926027202928
aF5.6089547119351835
aa(lp213
F212.32932156297332
aF6.4921523494629412
aa(lp214
F211.64954877678284
aF6.9054940466300252
aa(lp215
F210.88859662744167
aF6.6813627879548676
aa(lp216
F210.12764447810048
aF6.4572315292797668
aa(lp217
F209.36669232875926
aF6.2331002706046661
aa(lp218
F208.60574017941809
aF6.0089690119295653
aa(lp219
F207.84478803007693
aF5.7848377532544646
aa(lp220
F207.08383588073573
aF5.5607064945793638
aa(lp221
F206.35852510720395
aF5.6164544109273038
aa(lp222
F205.73858639814804
aF6.4996520484550331
aa(lp223
F205.03934201344927
aF6.7600901384207646
aa(lp224
F204.27838986410811
aF6.5359588797456638
aa(lp225
F203.51743771476688
aF6.3118276210705631
aa(lp226
F202.75648556542572
aF6.0876963623954623
aa(lp227
F201.99553341608453
aF5.8635651037203615
aa(lp228
F201.23458126674336
aF5.6394338450452324
aa(lp229
F200.47362911740214
aF5.4153025863701032
aa(lp230
F199.71267696806098
aF5.1911713276950024
aa(lp231
F198.95172481871978
aF4.9670400690199017
aa(lp232
F198.19081692982618
aF4.7432563720556971
aa(lp233
F197.57087822077023
aF5.6264540095834263
aa(lp234
F196.90723095143326
aF6.166423712861274
aa(lp235
F196.14627880209207
aF5.9422924541861732
aa(lp236
F195.3853266527509
aF5.7181611955110725
aa(lp237
F194.62437450340971
aF5.4940299368359717
aa(lp238
F193.86342235406852
aF5.269898678160871
aa(lp239
F193.10247020472733
aF5.0457674194857702
aa(lp240
F192.34151805538616
aF4.8216361608106695
aa(lp241
F191.60008176500085
aF4.750756071047789
aa(lp242
F190.98014305594495
aF5.6339537085755751
aa(lp243
F190.2970241880997
aF6.0210198046520702
aa(lp244
F189.53607203875853
aF5.7968885459769695
aa(lp245
F188.77511988941734
aF5.5727572873018687
aa(lp246
F188.01416774007615
aF5.3486260286267395
aa(lp247
F187.25321559073495
aF5.1244947699516388
aa(lp248
F186.58631961272806
aF5.6389535079036079
aa(lp249
F185.9663809036721
aF6.5221511454313941
aa(lp250
F185.20872172344849
aF6.3238784137930395
aa(lp251
F184.44776957410733
aF6.0997471551179387
aa(lp252
F183.68681742476613
aF5.875615896442838
aa(lp253
F182.92586527542497
aF5.6514846377676804
aa(lp254
F182.16491312608375
aF5.4273533790925796
aa(lp255
F181.40396097674258
aF5.2032221204174789
aa(lp256
F180.64300882740139
aF4.9790908617423781
aa(lp257
F179.88205667806022
aF4.7549596030672774
aa(lp258
F179.121104528719
aF4.5308283443921766
aa(lp259
F178.41861143535027
aF4.7657554690320012
aa(lp260
F177.79867272629434
aF5.6489531065597589
aa(lp261
F177.07661066143251
aF5.7302119882335774
aa(lp262
F176.31565851209135
aF5.5060807295584482
aa(lp263
F175.6017610046859
aF5.651453006223818
aa(lp264
F174.98182229562994
aF6.5346506437515472
aa(lp265
F174.27116464480488
aF6.7054643733998773
aa(lp266
F173.51021249546369
aF6.4813331147247482
aa(lp267
F172.74926034612253
aF6.2572018560496474
aa(lp268
F171.9883081967813
aF6.0330705973745467
aa(lp269
F171.22735604744014
aF5.8089393386994459
aa(lp270
F170.58799885241308
aF6.5396504430796085
aa(lp271
F169.94381432949481
aF7.232454241215919
aa(lp272
F169.18286218015365
aF7.0083229825408182
aa(lp273
F168.42191003081243
aF6.7841917238657174
aa(lp274
F167.66095788147126
aF6.5600604651906167
aa(lp275
F166.90000573213007
aF6.3359292065155159
aa(lp276
F166.19417540919622
aF6.5446502424076982
aa(lp277
F165.57423670014026
aF7.4278478799354559
aa(lp278
F164.85551186484358
aF7.5353128503569167
aa(lp279
F164.09455971550241
aF7.3111815916817875
aa(lp280
F163.37732497853185
aF7.4303477795994581
aa(lp281
F162.75738626947589
aF8.3135454171272443
aa(lp282
F162.05006584821595
aF8.5105652355232166
aa(lp283
F161.28911369887473
aF8.2864339768480875
aa(lp284
F160.52816154953356
aF8.0623027181729867
aa(lp285
F159.76720940019237
aF7.838171459497886
aa(lp286
F159.00625725085121
aF7.6140402008227568
aa(lp287
F158.36356282625906
aF8.3185452164552771
aa(lp288
F157.72271553290588
aF9.0375551033392583
aa(lp289
F156.96176338356472
aF8.8134238446641575
aa(lp290
F156.20081123422349
aF8.5892925859890568
aa(lp291
F155.54671239559468
aF9.2042427536470939
aa(lp292
F154.92677368653872
aF10.087440391174823
aa(lp293
F154.30683497748277
aF10.970638028702581
aa(lp294
F153.68689626842681
aF11.853835666230339
aa(lp295
F153.06695755937085
aF12.737033303758096
aa(lp296
F152.35018608038763
aF12.85983729353859
aa(lp297
F151.58923393104646
aF12.63570603486346
aa(lp298
F150.87004583776246
aF12.73953320342207
aa(lp299
F150.2501071287065
aF13.622730840949828
aa(lp300
F149.54474006376
aF13.83508967870489
aa(lp301
F148.78378791441884
aF13.61095842002976
aa(lp302
F148.05319540709814
aF13.625230740613858
aa(lp303
F147.43325669804219
aF14.508428378141559
aa(lp304
F146.73929404713238
aF14.81034206387119
aa(lp305
F145.97834189779121
aF14.586210805196117
aa(lp306
F145.21738974845005
aF14.362079546520988
aa(lp307
F144.45643759910888
aF14.137948287845859
aa(lp308
F143.69548544976772
aF13.913817029170843
aa(lp309
F143.03943325482538
aF14.513428177469507
aa(lp310
F142.41194373182242
aF15.337331931687288
aa(lp311
F141.65099158248125
aF15.113200673012159
aa(lp312
F140.89003943314009
aF14.889069414337087
aa(lp313
F140.22258282416107
aF15.399125714661238
aa(lp314
F139.60264411510511
aF16.282323352188996
aa(lp315
F138.98270540604918
aF17.165520989716754
aa(lp316
F138.32295599724952
aF17.736099219370146
aa(lp317
F137.56200384790836
aF17.511967960695017
aa(lp318
F136.80105169856716
aF17.287836702019945
aa(lp319
F136.040099549226
aF17.063705443344816
aa(lp320
F135.27914739988483
aF16.839574184669686
aa(lp321
F134.58888196283237
aF17.170520789044758
aa(lp322
F133.96894325377644
aF18.053718426572459
aa(lp323
F133.23465353259837
aF18.038957828511116
aa(lp324
F132.47370138325721
aF17.814826569835986
aa(lp325
F131.77203153216803
aF18.05621832623649
aa(lp326
F131.1520928231121
aF18.939415963764191
aa(lp327
F130.42920751597075
aF19.014210213677416
aa(lp328
F129.66825536662958
aF18.790078955002286
aa(lp329
F128.90730321728842
aF18.565947696327214
aa(lp330
F128.14635106794722
aF18.341816437652085
aa(lp331
F127.38539891860606
aF18.117685178977013
aa(lp332
F126.7582693798953
aF18.944415763092195
aa(lp333
F126.10185720066079
aF19.541200081493514
aa(lp334
F125.3409050513196
aF19.317068822818385
aa(lp335
F124.57995290197843
aF19.092937564143313
aa(lp336
F123.94141894923098
aF19.830113300283926
aa(lp337
F123.32148024017502
aF20.713310937811684
aa(lp338
F122.70154153111909
aF21.596508575339385
aa(lp339
F122.01286946608789
aF21.939967369176316
aa(lp340
F121.2519173167467
aF21.715836110501243
aa(lp341
F120.5046298095107
aF21.599008475003359
aa(lp342
F119.88469110045475
aF22.482206112531117
aa(lp343
F119.26475239139882
aF23.365403750058874
aa(lp344
F118.64481368234289
aF24.248601387586575
aa(lp345
F117.923881731515
aF24.338734656859174
aa(lp346
F117.16292958217383
aF24.114603398184045
aa(lp347
F116.40197743283267
aF23.890472139508972
aa(lp348
F115.6410252834915
aF23.666340880833843
aa(lp349
F114.88007313415031
aF23.442209622158771
aa(lp350
F114.25099023912608
aF24.25360118691458
aa(lp351
F113.59653141620504
aF24.865724524675272
aa(lp352
F112.83557926686387
aF24.641593266000143
aa(lp353
F112.07462711752271
aF24.417462007325071
aa(lp354
F111.31367496818154
aF24.193330748649942
aa(lp355
F110.55272281884035
aF23.969199489974869
aa(lp356
F109.79177066949919
aF23.745068231299797
aa(lp357
F109.03081852015802
aF23.520936972624668
aa(lp358
F108.28019378335682
aF23.3779032483788
aa(lp359
F107.66025507430089
aF24.261100885906501
aa(lp360
F106.98632465287156
aF24.72032061646604
aa(lp361
F106.22537250353039
aF24.496189357790968
aa(lp362
F105.46442035418923
aF24.272058099115895
aa(lp363
F104.84340464363656
aF25.146798423098289
aa(lp364
F104.22346593458062
aF26.02999606062599
aa(lp365
F103.60352722552469
aF26.913193698153748
aa(lp366
F102.89733691829866
aF27.119087904148898
aa(lp367
F102.1363847689575
aF26.894956645473769
aa(lp368
F101.40661550391629
aF26.915693597817722
aa(lp369
F100.78667679486036
aF27.798891235345479
aa(lp370
F100.09189090167104
aF28.094340289315198
aa(lp371
F99.330938752329871
aF27.870209030640069
aa(lp372
F98.569986602988706
aF27.646077771964997
aa(lp373
F97.809034453647541
aF27.421946513289868
aa(lp374
F97.048082304306376
aF27.197815254614738
aa(lp375
F96.392853351643538
aF27.803891034673427
aa(lp376
F95.764540586361093
aF28.621330157131297
aa(lp377
F95.003588437019914
aF28.397198898456168
aa(lp378
F94.242636287678749
aF28.173067639781095
aa(lp379
F93.481684138337584
aF27.948936381105966
aa(lp380
F92.720731988996405
aF27.724805122430837
aa(lp381
F91.999029908426735
aF27.808890834001431
aa(lp382
F91.379091199370805
aF28.692088471529189
aa(lp383
F90.676238121709957
aF28.924188766272266
aa(lp384
F89.915285972368778
aF28.700057507597137
aa(lp385
F89.182179477762389
aF28.694588371193163
aa(lp386
F88.562240768706445
aF29.577786008720921
aa(lp387
F87.942302059650515
aF30.460983646248621
aa(lp388
F87.322363350594571
aF31.344181283776379
aa(lp389
F86.702424641538656
aF32.227378921304137
aa(lp390
F86.064660818532928
aF32.970602215146755
aa(lp391
F85.303708669191764
aF32.746470956471569
aa(lp392
F84.542756519850599
aF32.522339697796554
aa(lp393
F83.885574210874324
aF33.113076458495811
aa(lp394
F83.259214801905301
aF33.945854600312998
aa(lp395
F82.498262652564136
aF33.721723341637869
aa(lp396
F81.737310503222943
aF33.497592082962854
aa(lp397
F81.068723780209965
aF33.9987739956876
aa(lp398
F80.448785071154035
aF34.881971633215358
aa(lp399
F79.828846362098091
aF35.765169270743058
aa(lp400
F79.170227067332405
aF36.344621887995856
aa(lp401
F78.40927491799124
aF36.120490629320727
aa(lp402
F77.648322768650061
aF35.896359370645655
aa(lp403
F77.011995931433773
aF36.65086680793479
aa(lp404
F76.392057222377844
aF37.534064445462548
aa(lp405
F75.7721185133219
aF38.417262082990248
aa(lp406
F75.15217980426597
aF39.300459720518006
aa(lp407
F74.532241095210026
aF40.183657358045707
aa(lp408
F73.797697614814211
aF40.166904078195159
aa(lp409
F73.036745465473061
aF39.942772819520144
aa(lp410
F72.275793316131882
aF39.718641560844958
aa(lp411
F71.514841166790703
aF39.494510302169829
aa(lp412
F70.758356361049167
aF39.305459519845954
aa(lp413
F70.138417651993223
aF40.188657157373711
aa(lp414
F69.518478942937293
aF41.071854794901412
aa(lp415
F68.898540233881363
aF41.955052432429227
aa(lp416
F68.186805581559
aF42.117408848527759
aa(lp417
F67.425853432217806
aF41.893277589852687
aa(lp418
F66.701628512272961
aF41.957552332093201
aa(lp419
F66.081689803217017
aF42.840749969620902
aa(lp420
F65.381359564931358
aF43.092661233694059
aa(lp421
F64.620407415590179
aF42.868529975018987
aa(lp422
F63.884778081608616
aF42.843249869284932
aa(lp423
F63.264839372552686
aF43.726447506812633
aa(lp424
F62.575913548303731
aF44.067913618860416
aa(lp425
F61.814961398962552
aF43.843782360185287
aa(lp426
F61.067927650944256
aF43.728947406476664
aa(lp427
F60.44798894188834
aF44.612145044004365
aa(lp428
F59.828050232832396
aF45.495342681532122
aa(lp429
F59.208111523776466
aF46.37854031905988
aa(lp430
F58.588172814720537
aF47.261737956587638
aa(lp431
F57.968234105664607
aF48.144935594115395
aa(lp432
F57.348295396608663
aF49.028133231643096
aa(lp433
F56.680794527181433
aF49.53784197025135
aa(lp434
F55.919842377840268
aF49.313710711576277
aa(lp435
F55.158890228499075
aF49.089579452901148
aa(lp436
F54.397938079157896
aF48.865448194226019
aa(lp437
F53.636985929816746
aF48.641316935550947
aa(lp438
F52.95447195339186
aF49.033133030971101
aa(lp439
F52.33453324433593
aF49.916330668498802
aa(lp440
F51.714594535279986
aF50.799528306026559
aa(lp441
F51.069902493926179
aF51.48834674058395
aa(lp442
F50.308950344584986
aF51.26421548190882
aa(lp443
F49.547998195243821
aF51.040084223233691
aa(lp444
F48.89774410461564
aF51.685225843218291
aa(lp445
F48.264456477298538
aF52.463599125750306
aa(lp446
F47.503504327957387
aF52.23946786707512
aa(lp447
F46.74255217861618
aF52.015336608399991
aa(lp448
F46.08089367395128
aF52.570923380410079
aa(lp449
F45.460954964895365
aF53.45412101793778
aa(lp450
F44.841016255839421
aF54.337318655465538
aa(lp451
F44.175468742725613
aF54.862366413433051
aa(lp452
F43.414516593384434
aF54.638235154757922
aa(lp453
F42.653564444043255
aF54.414103896082906
aa(lp454
F41.892612294702104
aF54.18997263740772
aa(lp455
F41.131660145360925
aF53.965841378732648
aa(lp456
F40.370707996019746
aF53.741710120057576
aa(lp457
F39.609755846678581
aF53.517578861382447
aa(lp458
F38.848803697337402
aF53.293447602707317
aa(lp459
F38.087851547996209
aF53.069316344032188
aa(lp460
F37.326899398655044
aF52.845185085357173
aa(lp461
F36.673308078461687
aF53.464120616593789
aa(lp462
F36.043357680709775
aF54.268699987873617
aa(lp463
F35.282405531368582
aF54.044568729198545
aa(lp464
F34.521453382027417
aF53.820437470523473
aa(lp465
F33.856457647797356
aF54.34981815378552
aa(lp466
F33.23651893874144
aF55.233015791313221
aa(lp467
F32.476959514740983
aF55.019821114364845
aa(lp468
F31.716007365399829
aF54.795689855689716
aa(lp469
F31.039607217133057
aF55.235515690977252
aa(lp470
F30.419668508077098
aF56.118713328504953
aa(lp471
F29.671513498113374
aF55.995073499531145
aa(lp472
F28.910561348772188
aF55.770942240856016
aa(lp473
F28.222756786468683
aF56.121213228168983
aa(lp474
F27.602818077412746
aF57.004410865696741
aa(lp475
F26.866067481485725
aF56.970325884697445
aa(lp476
F26.105115332144539
aF56.746194626022373
aa(lp477
F25.405906355804344
aF57.006910765360715
aa(lp478
F24.785967646748407
aF57.890108402888472
aa(lp479
F24.060621464858098
aF57.945578269863745
aa(lp480
F23.299669315516912
aF57.721447011188616
aa(lp481
F22.538717166175726
aF57.497315752513543
aa(lp482
F21.77776501683454
aF57.273184493838414
aa(lp483
F21.016812867493375
aF57.049053235163342
aa(lp484
F20.392144203531583
aF57.895108202216477
aa(lp485
F19.733271149548084
aF58.472568137679843
aa(lp486
F18.972319000206912
aF58.248436879004714
aa(lp487
F18.211366850865748
aF58.024305620329642
aa(lp488
F17.575293772867209
aF58.780805739408265
aa(lp489
F16.955355063811293
aF59.664003376935966
aa(lp490
F16.335416354755377
aF60.547201014463724
aa(lp491
F15.644283414975202
aF60.871335425362702
aa(lp492
F14.88333126563403
aF60.647204166687516
aa(lp493
F14.12237911629283
aF60.423072908012387
aa(lp494
F13.361426966951658
aF60.198941649337314
aa(lp495
F12.600474817610493
aF59.974810390662299
aa(lp496
F11.941592911538539
aF60.552200813791728
aa(lp497
F11.316933099665217
aF61.3983252931788
aa(lp498
F10.555980950324031
aF61.174194034503671
aa(lp499
F9.7950288009828661
aF60.950062775828542
aa(lp500
F9.0340766516416977
aF60.725931517153469
aa(lp501
F8.2731245023005329
aF60.501800258478397
aa(lp502
F7.5121723529593645
aF60.277668999803268
aa(lp503
F6.7512202036181783
aF60.053537741128082
aa(lp504
F5.9902680542770099
aF59.829406482453066
aa(lp505
F5.2293159049358593
aF59.60527522377788
aa(lp506
F4.4683637555946731
aF59.381143965102808
aa(lp507
F3.7074116062535083
aF59.157012706427736
aa(lp508
F2.9464594569123221
aF58.932881447752663
aa(lp509
F2.1855073075711537
aF58.708750189077477
aa(lp510
F1.4245551582299854
aF58.484618930402348
aa(lp511
F0.6636030088887992
aF58.260487671727333
aa(lp512
F0
aF58.800804936720226
aa.