(lp1
I8
aI6
aI3
aI9
aI6
aI0
aI0
aI10
aI5
aI0
aI0
aI6
aI9
aI12
aI6
aI1
a.(lp1
I0
aI0
aI6
aI3
aI3
aI3
aI9
aI4
aI0
aI6
aI1
aI0
aI0
aI0
aI0
aI9
aI10
aI1
aI0
aI0
aI0
aI0
aI0
aI10
aI7
aI0
aI0
aI0
aI0
aI0
aI0
aI10
aI5
aI0
aI0
aI0
aI0
aI0
aI0
aI6
aI5
aI0
aI0
aI0
aI0
aI0
aI6
aI1
aI9
aI0
aI0
aI0
aI0
aI12
aI5
aI0
aI2
aI9
aI12
aI12
aI6
aI1
aI0
aI0
a.(lp1
(lp2
F8.8195057396044376
aF92.950978484130346
aa(lp3
F8.2139475507189559
aF94.324871940287565
aa(lp4
F7.6083893618333889
aF95.698765396444784
aa(lp5
F7.0028311729478787
aF97.072658852602032
aa(lp6
F6.3972729840623401
aF98.446552308759223
aa(lp7
F5.79171479517683
aF99.820445764916471
aa(lp8
F5.1861566062912914
aF101.19433922107369
aa(lp9
F4.5805984174057812
aF102.56823267723091
aa(lp10
F3.9750402285202426
aF103.94212613338813
aa(lp11
F3.3694820396347041
aF105.31601958954535
aa(lp12
F2.7639238507491939
aF106.68991304570257
aa(lp13
F2.1583656618636269
aF108.06380650185979
aa(lp14
F1.5528074729781451
aF109.43769995801701
aa(lp15
F0.94724928409257814
aF110.81159341417425
aa(lp16
F0.59281583452462883
aF112.1799313477478
aa(lp17
F1.2772846601492915
aF113.5252861014571
aa(lp18
F1.9617534857740111
aF114.8706408551664
aa(lp19
F2.6462223113987307
aF116.21599560887576
aa(lp20
F2.4987470277162629
aF117.57975509761907
aa(lp21
F1.8931888388307243
aF118.95364855377629
aa(lp22
F1.2876306499451857
aF120.32754200993354
aa(lp23
F0.68207246105967556
aF121.70143546609076
aa(lp24
F1.2114973130243243
aF123.05022018970057
aa(lp25
F1.760600427314273
aF124.39856957973454
aa(lp26
F1.1550422384287344
aF125.77246303589176
aa(lp27
F1.6458807477324626
aF127.12210138825459
aa(lp28
F2.2335702046833319
aF128.46959714953556
aa(lp29
F1.6280120157978217
aF129.84349060569281
aa(lp30
F2.0802641824406294
aF131.19398258680866
aa(lp31
F2.7647330080653489
aF132.53933734051793
aa(lp32
F3.4492018336900401
aF133.88469209422726
aa(lp33
F3.7850679483070166
aF135.23775883298038
aa(lp34
F3.1795097594215065
aF136.61165228913762
aa(lp35
F2.5739515705359679
aF137.98554574529481
aa(lp36
F2.9490310518569061
aF139.33774498391671
aa(lp37
F3.6334998774815972
aF140.68309973762604
aa(lp38
F3.0469213479050552
aF142.05657331509582
aa(lp39
F3.383414486565016
aF143.40962618247073
aa(lp40
F4.0678833121897355
aF144.75498093618006
aa(lp41
F4.7523521378144551
aF146.10033568988939
aa(lp42
F5.2039772804142501
aF147.45084154238344
aa(lp43
F4.5984190915287115
aF148.82473499854069
aa(lp44
F3.9928609026432014
aF150.19862845469794
aa(lp45
F4.2521813559813211
aF151.55338857957884
aa(lp46
F4.9366501816060406
aF152.89874333328817
aa(lp47
F4.4658306800122602
aF154.26965602449889
aa(lp48
F4.6865647906894594
aF155.62526977813286
aa(lp49
F5.3710336163141505
aF156.97062453184219
aa(lp50
F4.9388004573813475
aF158.34068359429995
aa(lp51
F5.1209482253975978
aF159.69715097668694
aa(lp52
F5.8054170510222889
aF161.04250573039627
aa(lp53
F6.4898858766470084
aF162.3878604841056
aa(lp54
F7.174354702271728
aF163.73321523781487
aa(lp55
F7.8588235278964191
aF165.0785699915242
aa(lp56
F8.5432923535211387
aF166.42392474523353
aa(lp57
F9.2277611791458014
aF167.76927949894286
aa(lp58
F9.2529123223997374
aF169.12922004887514
aa(lp59
F8.9776757882292486
aF170.49580594378756
aa(lp60
F9.6621446138539682
aF171.84116069749689
aa(lp61
F9.7258820997688247
aF173.2002476186762
aa(lp62
F9.4120592229373869
aF174.56768714234164
aa(lp63
F10.096528048562107
aF175.91304189605091
aa(lp64
F10.198851877137884
aF177.27127518847726
aa(lp65
F9.8464426576455253
aF178.63956834089561
aa(lp66
F10.530911483270245
aF179.98492309460494
aa(lp67
F11.215380308894964
aF181.33027784831427
aa(lp68
F11.899849134519684
aF182.6756326020236
aa(lp69
F12.584317960144347
aF184.02098735573293
aa(lp70
F13.268786785769066
aF185.36634210944226
aa(lp71
F12.828877587016166
aF186.73657098556583
aa(lp72
F13.018701394852485
aF188.09286855428689
aa(lp73
F13.703170220477205
aF189.43822330799628
aa(lp74
F14.387639046101924
aF190.78357806170555
aa(lp75
F15.072107871726644
aF192.12893281541494
aa(lp76
F15.756576697351306
aF193.47428756912421
aa(lp77
F16.441045522976026
aF194.81964232283354
aa(lp78
F17.125514348600717
aF196.16499707654282
aa(lp79
F17.142989452034584
aF197.52510744014108
aa(lp80
F16.875428957684164
aF198.89152352138757
aa(lp81
F17.559897783308884
aF200.2368782750969
aa(lp82
F18.244366608933603
aF201.58223302880623
aa(lp83
F18.928835434558295
aF202.9275877825155
aa(lp84
F19.613304260182986
aF204.27294253622489
aa(lp85
F20.297773085807677
aF205.61829728993416
aa(lp86
F20.982241911432396
aF206.96365204364349
aa(lp87
F21.666710737057116
aF208.30900679735277
aa(lp88
F22.351179562681835
aF209.65436155106215
aa(lp89
F23.035648388306498
aF210.99971630477143
aa(lp90
F23.720117213931218
aF212.34507105848076
aa(lp91
F24.404586039555909
aF213.69042581219009
aa(lp92
F25.089054865180628
aF215.03578056589942
aa(lp93
F26.518427380517124
aF215.69692923249909
aa(lp94
F27.57380793727782
aF216.7015955620152
aa(lp95
F28.25827676290254
aF218.04695031572447
aa(lp96
F29.661055934565837
aF218.73252539861016
aa(lp97
F30.74302983499976
aF219.71276531184026
aa(lp98
F31.427498660624451
aF221.05812006554959
aa(lp99
F32.111967486249171
aF222.40347481925892
aa(lp100
F32.799226472452062
aF223.74626676534893
aa(lp101
F34.372769757557649
aF224.2749922480906
aa(lp102
F35.946313042663235
aF224.80371773083215
aa(lp103
F37.519856327768792
aF225.33244321357375
aa(lp104
F38.881757876916083
aF226.055565053897
aa(lp105
F39.566226702540803
aF227.40091980760633
aa(lp106
F40.662484881817477
aF228.36803937968477
aa(lp107
F42.236028166923063
aF228.89676486242644
aa(lp108
F43.809571452028621
aF229.42549034516799
aa(lp109
F45.38311473713415
aF229.95421582790959
aa(lp110
F46.956658022239736
aF230.4829413106512
aa(lp111
F48.530201307345294
aF231.01166679339281
aa(lp112
F50.10374459245088
aF231.54039227613441
aa(lp113
F51.677287877556438
aF232.06911775887602
aa(lp114
F53.250831162662024
aF232.59784324161757
aa(lp115
F54.824374447767553
aF233.12656872435923
aa(lp116
F56.39791773287314
aF233.65529420710084
aa(lp117
F57.971461017978697
aF234.18401968984239
aa(lp118
F59.545004303084283
aF234.71274517258405
aa(lp119
F61.118547588189841
aF235.2414706553256
aa(lp120
F62.692090873295371
aF235.77019613806721
aa(lp121
F64.265634158400957
aF236.29892162080881
aa(lp122
F65.839177443506543
aF236.82764710355042
aa(lp123
F67.412720728612101
aF237.35637258629208
aa(lp124
F68.986264013717658
aF237.88509806903363
aa(lp125
F70.559807298823245
aF238.41382355177518
aa(lp126
F72.133350583928802
aF238.94254903451684
aa(lp127
F73.70689386903436
aF239.47127451725845
aa(lp128
F75.280437154139918
aF240.00000000000006
aa(lp129
F76.825458100579255
aF239.54585014977761
aa(lp130
F78.369510222021034
aF239.0583147415482
aa(lp131
F79.943053507126592
aF239.58704022428986
aa(lp132
F81.489052128935327
aF239.16658091450608
aa(lp133
F83.03212657500768
aF238.64535496583795
aa(lp134
F84.605669860113238
aF239.17408044857962
aa(lp135
F86.1526461572914
aF238.78731167923462
aa(lp136
F87.694742927994383
aF238.23239519012782
aa(lp137
F89.268286213099913
aF238.76112067286937
aa(lp138
F90.81624018564753
aF238.40804244396304
aa(lp139
F92.35709761480021
aF237.81041843871918
aa(lp140
F93.897955043952862
aF237.21279443347527
aa(lp141
F95.446432348862146
aF236.87775015596577
aa(lp142
F97.019975633967675
aF237.40647563870732
aa(lp143
F98.561549072308992
aF236.83352519820374
aa(lp144
F99.912341263925271
aF236.07815292242998
aa(lp145
F100.51789945281081
aF234.70425946627273
aa(lp146
F102.04128460798415
aF235.13439685264643
aa(lp147
F103.59217160663988
aF234.88239024505617
aa(lp148
F105.13302903579265
aF234.28476623981237
aa(lp149
F106.67388646494533
aF233.6871422345684
aa(lp150
F108.21474389409806
aF233.0895182293246
aa(lp151
F109.75560132325074
aF232.49189422408068
aa(lp152
F111.2964587524034
aF231.89427021883682
aa(lp153
F112.83731618155613
aF231.29664621359296
aa(lp154
F114.37817361070884
aF230.69902220834899
aa(lp155
F115.91903103986161
aF230.10139820310519
aa(lp156
F117.45988846901426
aF229.50377419786128
aa(lp157
F119.00074589816697
aF228.90615019261742
aa(lp158
F120.54160332731968
aF228.3085261873735
aa(lp159
F122.08246075647233
aF227.71090218212964
aa(lp160
F123.6233181856251
aF227.11327817688579
aa(lp161
F125.1641756147778
aF226.51565417164187
aa(lp162
F126.70503304393051
aF225.91803016639801
aa(lp163
F128.24589047308322
aF225.32040616115415
aa(lp164
F129.78674790223587
aF224.72278215591024
aa(lp165
F131.32760533138864
aF224.12515815066638
aa(lp166
F132.86846276054129
aF223.52753414542252
aa(lp167
F134.409320189694
aF222.92991014017861
aa(lp168
F135.96307485234607
aF222.77672278574141
aa(lp169
F137.53205678889734
aF223.148264910151
aa(lp170
F139.0729142180501
aF222.55064090490714
aa(lp171
F140.61377164720275
aF221.95301689966328
aa(lp172
F142.15462907635552
aF221.35539289441937
aa(lp173
F143.69548650550817
aF220.75776888917545
aa(lp174
F145.23634393466088
aF220.16014488393165
aa(lp175
F146.01501819348712
aF218.92993241325104
aa(lp176
F146.62057638237266
aF217.55603895709379
aa(lp177
F147.51125837576328
aF216.41878944293558
aa(lp178
F149.05211580491604
aF215.82116543769172
aa(lp179
F150.09729573209316
aF214.81214443165612
aa(lp180
F150.96000174004362
aF213.65167571457181
aa(lp181
F152.50085916919627
aF213.05405170932789
aa(lp182
F154.04171659834904
aF212.45642770408404
aa(lp183
F155.58257402750169
aF211.85880369884018
aa(lp184
F156.44517624264861
aF210.69824883693809
aa(lp185
F157.49045996262922
aF209.68931397572021
aa(lp186
F159.03131739178193
aF209.09168997047635
aa(lp187
F160.57217482093469
aF208.49406596523249
aa(lp188
F162.11303225008734
aF207.89644195998864
aa(lp189
F163.65388967924005
aF207.29881795474472
aa(lp190
F165.0586597251536
aF206.58824562909689
aa(lp191
F165.66421791403909
aF205.21435217293964
aa(lp192
F167.10263304352029
aF204.5317042263809
aa(lp193
F168.5353790748741
aF203.84435110365922
aa(lp194
F169.14093726375964
aF202.47045764750197
aa(lp195
F170.55137640780057
aF201.76459049801707
aa(lp196
F172.09223383695323
aF201.16696649277321
aa(lp197
F173.63309126610599
aF200.5693424875293
aa(lp198
F175.17394869525864
aF199.97171848228544
aa(lp199
F176.71480612441135
aF199.37409447704152
aa(lp200
F177.75442074626463
aF198.36045443966077
aa(lp201
F178.62269205953899
aF197.20460475392161
aa(lp202
F180.16354948869164
aF196.6069807486777
aa(lp203
F181.23114009598513
aF195.6165599142231
aa(lp204
F181.83669828487061
aF194.24266645806591
aa(lp205
F182.44225647375615
aF192.86877300190866
aa(lp206
F183.04781466264163
aF191.49487954575142
aa(lp207
F183.65337285152722
aF190.12098608959423
aa(lp208
F184.71337837089644
aF189.12426986668578
aa(lp209
F186.25423580004914
aF188.52664586144186
aa(lp210
F187.13009220124772
aF187.37709156415656
aa(lp211
F188.16212173517678
aF186.35715613832195
aa(lp212
F189.70297916432943
aF185.75953213307804
aa(lp213
F190.60681155096822
aF184.63319703871895
aa(lp214
F191.21236973985376
aF183.2593035825617
aa(lp215
F191.81792792873929
aF181.88541012640445
aa(lp216
F192.42348611762478
aF180.51151667024726
aa(lp217
F193.88577954055941
aF179.84868696896211
aa(lp218
F195.29464727845979
aF179.14151560096678
aa(lp219
F195.90020546734533
aF177.76762214480965
aa(lp220
F196.50576365623081
aF176.3937286886524
aa(lp221
F197.70155141081452
aF175.50970752272224
aa(lp222
F199.24240883996717
aF174.91208351747832
aa(lp223
F199.98248300595131
aF173.64983416321479
aa(lp224
F200.58804119483685
aF172.27594070705754
aa(lp225
F201.19359938372244
aF170.90204725090035
aa(lp226
F201.79915757260792
aF169.5281537947431
aa(lp227
F202.40471576149341
aF168.15426033858586
aa(lp228
F203.79223772217196
aF167.42937263548635
aa(lp229
F205.27587692232842
aF166.78425926930549
aa(lp230
F205.88143511121396
aF165.41036581314825
aa(lp231
F206.48699330009944
aF164.03647235699106
aa(lp232
F207.09255148898504
aF162.66257890083386
aa(lp233
F207.69810967787058
aF161.28868544467662
aa(lp234
F208.30366786675606
aF159.91479198851937
aa(lp235
F208.90922605564154
aF158.54089853236212
aa(lp236
F210.24995253950433
aF157.7771720303744
aa(lp237
F211.78038721647661
aF157.17089746308176
aa(lp238
F212.38594540536209
aF155.79700400692451
aa(lp239
F212.99150359424763
aF154.42311055076726
aa(lp240
F213.59706178313317
aF153.04921709461001
aa(lp241
F214.20261997201871
aF151.67532363845282
aa(lp242
F214.80817816090419
aF150.30143018229563
aa(lp243
F215.41373634978973
aF148.92753672613838
aa(lp244
F216.01929453867527
aF147.55364326998114
aa(lp245
F216.62485272756081
aF146.17974981382395
aa(lp246
F217.23041091644635
aF144.8058563576667
aa(lp247
F217.83596910533188
aF143.43196290150951
aa(lp248
F218.44152729421737
aF142.05806944535226
aa(lp249
F219.0470854831029
aF140.68417598919507
aa(lp250
F219.65264367198844
aF139.31028253303782
aa(lp251
F220.25820186087398
aF137.93638907688057
aa(lp252
F220.86376004975952
aF136.56249562072338
aa(lp253
F221.469318238645
aF135.18860216456619
aa(lp254
F222.07487642753054
aF133.81470870840894
aa(lp255
F222.68043461641608
aF132.44081525225175
aa(lp256
F223.28599280530162
aF131.0669217960945
aa(lp257
F223.89155099418716
aF129.69302833993726
aa(lp258
F224.49710918307264
aF128.31913488378007
aa(lp259
F225.10266737195818
aF126.94524142762283
aa(lp260
F225.70822556084372
aF125.57134797146561
aa(lp261
F226.31378374972925
aF124.19745451530839
aa(lp262
F226.91934193861479
aF122.82356105915115
aa(lp263
F227.52490012750027
aF121.44966760299396
aa(lp264
F228.13045831638587
aF120.07577414683671
aa(lp265
F228.73601650527135
aF118.70188069067949
aa(lp266
F229.34157469415689
aF117.32798723452227
aa(lp267
F229.94713288304243
aF115.95409377836505
aa(lp268
F230.55269107192797
aF114.58020032220783
aa(lp269
F231.15824926081345
aF113.20630686605061
aa(lp270
F231.76380744969899
aF111.83241340989336
aa(lp271
F232.36936563858458
aF110.45851995373617
aa(lp272
F232.97492382747006
aF109.08462649757895
aa(lp273
F233.58048201635555
aF107.7107330414217
aa(lp274
F234.18604020524108
aF106.33683958526449
aa(lp275
F234.79159839412668
aF104.96294612910727
aa(lp276
F235.39715658301216
aF103.58905267295005
aa(lp277
F236.0027147718977
aF102.21515921679283
aa(lp278
F236.60827296078318
aF100.84126576063561
aa(lp279
F237.21383114966878
aF99.467372304478388
aa(lp280
F237.81938933855426
aF98.093478848321169
aa(lp281
F238.31518961070898
aF96.722013518468017
aa(lp282
F237.63072078508426
aF95.376658764758744
aa(lp283
F237.34641956118517
aF94.022451278520222
aa(lp284
F237.95197775007071
aF92.648557822363003
aa(lp285
F238.55753593895619
aF91.274664366205755
aa(lp286
F239.16309412784179
aF89.900770910048536
aa(lp287
F239.76865231672727
aF88.526877453891345
aa(lp288
F239.99999999999997
aF87.161262492798514
aa(lp289
F239.31553117437525
aF85.815907739089241
aa(lp290
F238.63106234875053
aF84.470552985379939
aa(lp291
F237.94659352312587
aF83.125198231670666
aa(lp292
F238.21715457310356
aF81.758715770446585
aa(lp293
F238.19667891404245
aF80.398671786825915
aa(lp294
F237.51221008841773
aF79.05331703311667
aa(lp295
F237.74418479573447
aF77.68768820064561
aa(lp296
F237.76229547933437
aF76.326790588271919
aa(lp297
F237.07782665370965
aF74.981435834562646
aa(lp298
F237.27121501836544
aF73.616660630844606
aa(lp299
F237.32791204462617
aF72.254909389717923
aa(lp300
F236.64344321900145
aF70.90955463600865
aa(lp301
F235.95897439337679
aF69.564199882299377
aa(lp302
F235.27450556775213
aF68.218845128590047
aa(lp303
F234.59003674212747
aF66.873490374880774
aa(lp304
F233.81592958281456
aF65.610469880478902
aa(lp305
F232.24238629770903
aF65.081744397737296
aa(lp306
F231.42081484440556
aF63.862320625055631
aa(lp307
F230.82782287921864
aF62.514942168841245
aa(lp308
F231.43338106810424
aF61.141048712684025
aa(lp309
F230.98643140969736
aF59.790439426501663
aa(lp310
F230.3019625840727
aF58.445084672792362
aa(lp311
F229.61749375844798
aF57.099729919083089
aa(lp312
F228.93302493282337
aF55.754375165373787
aa(lp313
F228.24855610719865
aF54.409020411664486
aa(lp314
F227.56408728157393
aF53.063665657955241
aa(lp315
F226.87961845594927
aF51.718310904245939
aa(lp316
F226.19514963032461
aF50.372956150536666
aa(lp317
F225.51068080469989
aF49.027601396827365
aa(lp318
F224.82621197907517
aF47.682246643118063
aa(lp319
F224.14174315345051
aF46.33689188940879
aa(lp320
F223.45727432782584
aF44.991537135699517
aa(lp321
F222.77280550220112
aF43.646182381990243
aa(lp322
F222.08833667657646
aF42.300827628280942
aa(lp323
F221.4038678509518
aF40.95547287457164
aa(lp324
F220.71939902532708
aF39.610118120862367
aa(lp325
F220.03493019970236
aF38.264763367153094
aa(lp326
F219.3504613740777
aF36.919408613443821
aa(lp327
F218.66599254845303
aF35.574053859734519
aa(lp328
F217.7217448185115
aF34.467310231317114
aa(lp329
F216.18123947635578
aF33.908238863618735
aa(lp330
F215.49677065073107
aF32.562884109909433
aa(lp331
F214.57911626446284
aF31.431714065206094
aa(lp332
F213.01201757863387
aF30.897069113793677
aa(lp333
F212.32754875300921
aF29.551714360084375
aa(lp334
F211.43648771041424
aF28.396117899095103
aa(lp335
F209.86294442530865
aF27.86739241635351
aa(lp336
F209.1583268552873
aF26.540544610259303
aa(lp337
F208.47385802966258
aF25.19518985655003
aa(lp338
F207.78938920403792
aF23.849835102840728
aa(lp339
F207.1049203784132
aF22.50448034913147
aa(lp340
F206.42045155278859
aF21.159125595422168
aa(lp341
F205.15568861847945
aF20.34678036624527
aa(lp342
F203.58214533337386
aF19.818054883503663
aa(lp343
F202.00860204826827
aF19.289329400762071
aa(lp344
F200.43505876316274
aF18.760603918020465
aa(lp345
F198.86151547805716
aF18.231878435278873
aa(lp346
F197.28797219295157
aF17.703152952537266
aa(lp347
F195.71442890784604
aF17.174427469795674
aa(lp348
F194.14088562274046
aF16.645701987054068
aa(lp349
F192.56734233763487
aF16.116976504312476
aa(lp350
F191.7650553506069
aF14.879839637448868
aa(lp351
F190.99825706869174
aF13.610105820943033
aa(lp352
F189.42471378358616
aF13.081380338201427
aa(lp353
F188.59583345288493
aF11.86866988762381
aa(lp354
F187.85562851464309
aF10.574509654832013
aa(lp355
F186.2820852295375
aF10.045784172090421
aa(lp356
F184.70854194443191
aF9.5170586893488149
aa(lp357
F183.13499865932638
aF8.9883332066072086
aa(lp358
F181.5614553742208
aF8.4596077238656164
aa(lp359
F179.98791208911521
aF7.9308822411240101
aa(lp360
F178.41436880400968
aF7.4021567583824179
aa(lp361
F176.8408255189041
aF6.8734312756407974
aa(lp362
F175.26728223379857
aF6.3447057928992052
aa(lp363
F173.69373894869298
aF5.8159803101575989
aa(lp364
F172.1201956635874
aF5.2872548274160067
aa(lp365
F170.54665237848187
aF4.7585293446744004
aa(lp366
F168.97310909337628
aF4.2298038619328082
aa(lp367
F167.39956580827069
aF3.7010783791912019
aa(lp368
F165.82602252316511
aF3.1723528964495955
aa(lp369
F164.25247923805958
aF2.6436274137079891
aa(lp370
F162.67893595295399
aF2.114901930966397
aa(lp371
F161.10539266784846
aF1.5861764482247906
aa(lp372
F159.53184938274288
aF1.0574509654831985
aa(lp373
F157.95830609763735
aF0.52872548274159215
aa(lp374
F156.38476281253176
aF0
aa(lp375
F154.84332372565635
aF0.57758017102024439
aa(lp376
F153.29568974465067
aF0.94168525845179829
aa(lp377
F151.72214645954509
aF0.41295977571020615
aa(lp378
F150.17972969730025
aF0.95684940629179493
aa(lp379
F148.63887226814754
aF1.5544734115356391
aa(lp380
F147.09801483899483
aF2.1520974167794975
aa(lp381
F145.54400032378291
aF2.2963302926138596
aa(lp382
F143.97527823979149
aF1.9337426468071328
aa(lp383
F142.43442081063878
aF2.5313666520509912
aa(lp384
F140.88138397079629
aF2.7092900683240799
aa(lp385
F139.31168421143545
aF2.3130118820786265
aa(lp386
F137.77082678228274
aF2.9106358873225275
aa(lp387
F136.21876761780962
aF3.1222498440342719
aa(lp388
F134.64809018307935
aF2.6922811173501628
aa(lp389
F133.10723275392664
aF3.2899051225940212
aa(lp390
F131.55615126482294
aF3.5352096197445206
aa(lp391
F129.98260797971747
aF3.0064841370029001
aa(lp392
F128.40906469461189
aF2.4777586542613079
aa(lp393
F126.86175955551997
aF2.8531955826492919
aa(lp394
F125.32090212636726
aF3.450819587893136
aa(lp395
F123.78004469721455
aF4.0484435931370513
aa(lp396
F122.23091855884965
aF4.3611291711649471
aa(lp397
F120.65737527374412
aF3.8324036884233408
aa(lp398
F119.11645066885845
aF4.4277128284085876
aa(lp399
F117.57559323970574
aF5.025336833652446
aa(lp400
F116.03473581055309
aF5.6229608388963044
aa(lp401
F114.49387838140032
aF6.2205848441402196
aa(lp402
F112.95302095224767
aF6.818208849384078
aa(lp403
F111.41216352309496
aF7.4158328546279222
aa(lp404
F109.87130609394225
aF8.0134568598718374
aa(lp405
F108.33044866478954
aF8.6110808651156958
aa(lp406
F106.78959123563686
aF9.2087048703595542
aa(lp407
F105.24873380648415
aF9.8063288756034694
aa(lp408
F103.70787637733144
aF10.403952880847299
aa(lp409
F102.16701894817871
aF11.001576886091215
aa(lp410
F100.60740708368203
aF10.952925980327663
aa(lp411
F99.044282348975344
aF10.783222116118864
aa(lp412
F97.503424919822663
aF11.380846121362694
aa(lp413
F95.962567490669954
aF11.978470126606624
aa(lp414
F94.421710061517246
aF12.576094131850482
aa(lp415
F92.880852632364537
aF13.173718137094326
aa(lp416
F91.339995203211856
aF13.771342142338256
aa(lp417
F89.799137774059176
aF14.368966147582086
aa(lp418
F88.463320633454146
aF15.136767252681807
aa(lp419
F87.857762444568635
aF16.51066070883904
aa(lp420
F86.350394409778914
aF17.13607987594591
aa(lp421
F84.986601283733648
aF17.880661778119446
aa(lp422
F84.381043094848138
aF19.254555234276651
aa(lp423
F82.901651045498653
aF19.903193604309749
aa(lp424
F81.360793616345944
aF20.500817609553607
aa(lp425
F79.819936187193235
aF21.098441614797437
aa(lp426
F78.279078758040555
aF21.696065620041381
aa(lp427
F76.738221328887846
aF22.293689625285225
aa(lp428
F75.767559612343177
aF23.364558442117897
aa(lp429
F74.830335393760294
aF24.463179348405177
aa(lp430
F73.289477964607613
aF25.060803353649035
aa(lp431
F71.748620535454933
aF25.658427358892922
aa(lp432
F70.207763106302224
aF26.256051364136809
aa(lp433
F68.666905677149487
aF26.853675369380653
aa(lp434
F67.126048247996806
aF27.451299374624568
aa(lp435
F65.585190818844097
aF28.048923379868427
aa(lp436
F64.044333389691417
aF28.646547385112285
aa(lp437
F62.503475960538708
aF29.244171390356186
aa(lp438
F61.411753808168299
aF30.214563788519982
aa(lp439
F60.595590025411127
aF31.413661113476124
aa(lp440
F59.054732596258447
aF32.011285118719982
aa(lp441
F57.935034458447774
aF32.958458313957593
aa(lp442
F57.146846661130894
aF34.18077484183992
aa(lp443
F55.605989231978185
aF34.778398847083835
aa(lp444
F54.458315108727248
aF35.702352839395289
aa(lp445
F53.698103296850604
aF36.947888570203745
aa(lp446
F52.157245867697924
aF37.545512575447631
aa(lp447
F50.98159575900678
aF38.4462473648329
aa(lp448
F50.376037570121213
aF39.820140820990119
aa(lp449
F49.770479381235731
aF41.194034277147338
aa(lp450
F49.164921192350164
aF42.567927733304558
aa(lp451
F47.974445491467918
aF43.456357739563586
aa(lp452
F46.433588062315238
aF44.053981744807444
aa(lp453
F45.688201842629667
aF45.311822258742225
aa(lp454
F45.082643653744128
aF46.685715714899445
aa(lp455
F44.158673621212841
aF47.795337185803461
aa(lp456
F42.617816192060133
aF48.39296119104732
aa(lp457
F41.605924304023631
aF49.429610240337084
aa(lp458
F41.000366115138092
aF50.803503696494303
aa(lp459
F40.342901750957708
aF52.134316632043337
aa(lp460
F38.802044321805027
aF52.731940637287195
aa(lp461
F37.523646765417595
aF53.547398221931914
aa(lp462
F36.918088576532085
aF54.921291678089133
aa(lp463
F36.312530387646547
aF56.295185134246381
aa(lp464
F35.706972198761008
aF57.669078590403572
aa(lp465
F35.101414009875498
aF59.04297204656082
aa(lp466
F34.495855820989931
aF60.416865502718039
aa(lp467
F33.890297632104449
aF61.79075895887523
aa(lp468
F33.284739443218882
aF63.164652415032478
aa(lp469
F32.6791812543334
aF64.538545871189697
aa(lp470
F32.073623065447833
aF65.912439327346917
aa(lp471
F31.468064876562352
aF67.286332783504136
aa(lp472
F30.862506687676785
aF68.660226239661355
aa(lp473
F30.256948498791246
aF70.034119695818603
aa(lp474
F29.651390309905736
aF71.408013151975823
aa(lp475
F29.045832121020197
aF72.781906608133013
aa(lp476
F28.440273932134687
aF74.155800064290261
aa(lp477
F27.834715743249149
aF75.529693520447481
aa(lp478
F27.229157554363638
aF76.9035869766047
aa(lp479
F26.6235993654781
aF78.277480432761919
aa(lp480
F25.592329586418771
aF79.298046431647506
aa(lp481
F24.051472157266062
aF79.895670436891422
aa(lp482
F23.146880015757574
aF81.021374958199587
aa(lp483
F22.541321826872064
aF82.395268414356778
aa(lp484
F21.935763637986526
aF83.769161870513997
aa(lp485
F21.330205449101015
aF85.143055326671245
aa(lp486
F20.724647260215477
aF86.516948782828436
aa(lp487
F20.119089071329938
aF87.890842238985684
aa(lp488
F19.513530882444428
aF89.264735695142903
aa(lp489
F18.907972693558889
aF90.638629151300123
aa(lp490
F18.302414504673379
aF92.012522607457342
aa(lp491
F17.696856315787812
aF93.386416063614561
aa(lp492
F17.091298126902331
aF94.760309519771781
aa(lp493
F16.125643316034257
aF95.835333913507597
aa(lp494
F14.584785886881576
aF96.432957918751484
aa(lp495
F13.614578777181777
aF97.50420404520942
aa(lp496
F13.009020588296295
aF98.878097501366668
aa(lp497
F12.403462399410728
aF100.25199095752386
aa(lp498
F11.797904210525246
aF101.62588441368111
aa(lp499
F11.192346021639679
aF102.99977786983833
aa(lp500
F10.586787832754169
aF104.37367132599555
aa(lp501
F9.9812296438686303
aF105.74756478215276
aa(lp502
F9.3756714549830917
aF107.12145823831001
aa(lp503
F8.7701132660975816
aF108.4953516944672
aa(lp504
F8.164555077212043
aF109.86924515062442
aa(lp505
F7.0259855516246716
aF110.80075567749161
aa(lp506
F5.4851281224719344
aF111.39837968273547
aa(lp507
F3.9442706933192255
aF111.99600368797935
aa(lp508
F2.4222327555420975
aF112.60924728918529
aa(lp509
F1.8166745666565873
aF113.98314074534251
aa(lp510
F1.2111163777710487
aF115.3570342014997
aa(lp511
F0.60555818888551016
aF116.73092765765695
aa(lp512
F0
aF118.10482111381417
aa.