(lp1
I6
aI9
aI4
aI0
aI5
aI0
aI9
aI12
aI0
aI0
aI0
aI10
aI0
aI0
aI0
aI6
a.(lp1
I0
aI10
aI9
aI4
aI0
aI0
aI0
aI0
aI8
aI6
aI0
aI9
aI12
aI0
aI0
aI0
aI6
aI0
aI0
aI0
aI2
aI9
aI0
aI0
aI1
aI0
aI0
aI0
aI0
aI2
aI9
aI4
aI0
aI0
aI0
aI0
aI0
aI0
aI0
aI11
aI0
aI0
aI0
aI0
aI0
aI0
aI0
aI6
aI0
aI0
aI0
aI0
aI0
aI0
aI10
aI1
aI0
aI0
aI0
aI0
aI0
aI0
aI6
aI0
a.(lp1
(lp2
F239.72169107749855
aF131.9443775931415
aa(lp3
F239.86084553874926
aF132.88566630421241
aa(lp4
F239.99999999999997
aF133.82695501528332
aa(lp5
F239.65507173001248
aF134.6422143909686
aa(lp6
F239.15703446084078
aF135.4176123459431
aa(lp7
F238.65899719166907
aF136.19301030091759
aa(lp8
F238.53783864784455
aF137.06652738349453
aa(lp9
F238.67699310909526
aF138.00781609456544
aa(lp10
F238.59237784418301
aF138.89084709874481
aa(lp11
F238.0943405750113
aF139.66624505371931
aa(lp12
F237.59630330583963
aF140.44164300869386
aa(lp13
F237.09826603666792
aF141.21704096366835
aa(lp14
F236.60022876749625
aF141.99243891864285
aa(lp15
F236.10219149832454
aF142.7678368736174
aa(lp16
F235.60415422915284
aF143.54323482859184
aa(lp17
F235.10611695998116
aF144.31863278356633
aa(lp18
F234.60807969080946
aF145.09403073854082
aa(lp19
F234.11004242163776
aF145.86942869351537
aa(lp20
F234.15135459137824
aF146.78524448812817
aa(lp21
F234.29050905262895
aF147.72653319919908
aa(lp22
F234.04342307415169
aF148.56726549134254
aa(lp23
F233.54538580497999
aF149.34266344631709
aa(lp24
F233.04734853580831
aF150.11806140129158
aa(lp25
F232.54931126663661
aF150.89345935626613
aa(lp26
F232.05127399746493
aF151.66885731124057
aa(lp27
F231.55323672829323
aF152.44425526621507
aa(lp28
F231.05519945912152
aF153.21965322118956
aa(lp29
F230.55716218994985
aF153.99505117616411
aa(lp30
F230.05912492077815
aF154.77044913113861
aa(lp31
F229.56108765160641
aF155.54584708611316
aa(lp32
F229.06305038243477
aF156.32124504108765
aa(lp33
F228.56501311326303
aF157.09664299606214
aa(lp34
F228.06697584409139
aF157.87204095103664
aa(lp35
F227.56893857491966
aF158.64743890601113
aa(lp36
F227.07090130574801
aF159.42283686098563
aa(lp37
F226.57286403657628
aF160.19823481596012
aa(lp38
F226.0748267674046
aF160.97363277093467
aa(lp39
F225.57678949823287
aF161.74903072590917
aa(lp40
F225.07875222906122
aF162.52442868088366
aa(lp41
F224.96092309469341
aF163.39881256418278
aa(lp42
F225.10007755594413
aF164.34010127525369
aa(lp43
F225.0121328815751
aF165.22226547871088
aa(lp44
F224.51409561240345
aF165.99766343368537
aa(lp45
F224.01605834323172
aF166.77306138865987
aa(lp46
F223.51802107406007
aF167.54845934363436
aa(lp47
F223.01998380488834
aF168.32385729860886
aa(lp48
F222.52194653571669
aF169.09925525358341
aa(lp49
F222.02390926654496
aF169.8746532085579
aa(lp50
F221.52587199737329
aF170.6500511635324
aa(lp51
F221.02783472820158
aF171.42544911850689
aa(lp52
F220.52979745902991
aF172.20084707348144
aa(lp53
F220.03176018985818
aF172.97624502845593
aa(lp54
F219.53372292068653
aF173.75164298343049
aa(lp55
F219.0356856515148
aF174.52704093840498
aa(lp56
F218.53764838234309
aF175.30243889337947
aa(lp57
F218.03961111317142
aF176.07783684835391
aa(lp58
F217.54157384399971
aF176.85323480332846
aa(lp59
F217.04353657482804
aF177.62863275830296
aa(lp60
F216.54549930565634
aF178.40403071327745
aa(lp61
F216.04746203648463
aF179.179428668252
aa(lp62
F215.54942476731296
aF179.9548266232265
aa(lp63
F215.05138749814125
aF180.73022457820099
aa(lp64
F214.55335022896958
aF181.50562253317548
aa(lp65
F214.05531295979787
aF182.28102048815003
aa(lp66
F213.55727569062617
aF183.05641844312453
aa(lp67
F213.05923842145449
aF183.83181639809902
aa(lp68
F212.56120115228279
aF184.60721435307352
aa(lp69
F212.06316388311112
aF185.38261230804801
aa(lp70
F211.56512661393941
aF186.1580102630225
aa(lp71
F211.06708934476771
aF186.93340821799706
aa(lp72
F210.56905207559603
aF187.70880617297155
aa(lp73
F210.07101480642433
aF188.4842041279461
aa(lp74
F209.57297753725265
aF189.25960208292059
aa(lp75
F209.07494026808095
aF190.03500003789509
aa(lp76
F208.57690299890925
aF190.81039799286958
aa(lp77
F208.07886572973757
aF191.58579594784408
aa(lp78
F207.58082846056587
aF192.36119390281857
aa(lp79
F207.08279119139419
aF193.13659185779312
aa(lp80
F206.58475392222249
aF193.91198981276762
aa(lp81
F206.08671665305079
aF194.68738776774211
aa(lp82
F205.58867938387911
aF195.4627857227166
aa(lp83
F205.09064211470741
aF196.2381836776911
aa(lp84
F204.59260484553573
aF197.01358163266565
aa(lp85
F204.09456757636403
aF197.7889795876402
aa(lp86
F203.59653030719232
aF198.56437754261469
aa(lp87
F203.09849303802065
aF199.33977549758919
aa(lp88
F202.60045576884895
aF200.11517345256362
aa(lp89
F202.10241849967724
aF200.89057140753812
aa(lp90
F201.60438123050557
aF201.66596936251267
aa(lp91
F201.10634396133386
aF202.44136731748716
aa(lp92
F200.60830669216219
aF203.21676527246171
aa(lp93
F200.11026942299048
aF203.99216322743621
aa(lp94
F199.61223215381878
aF204.7675611824107
aa(lp95
F199.11419488464711
aF205.5429591373852
aa(lp96
F198.6161576154754
aF206.31835709235975
aa(lp97
F198.11812034630373
aF207.09375504733424
aa(lp98
F197.62008307713199
aF207.86915300230874
aa(lp99
F197.12204580796032
aF208.64455095728323
aa(lp100
F196.8330107596361
aF209.47436194806289
aa(lp101
F196.97216522088686
aF210.4156506591338
aa(lp102
F197.05542646047422
aF211.34238775511039
aa(lp103
F196.55738919130255
aF212.11778571008489
aa(lp104
F196.05935192213082
aF212.89318366505944
aa(lp105
F195.56131465295917
aF213.66858162003393
aa(lp106
F195.06327738378744
aF214.44397957500843
aa(lp107
F194.56524011461579
aF215.21937752998292
aa(lp108
F194.06720284544406
aF215.99477548495747
aa(lp109
F194.04784251657594
aF216.89479539555629
aa(lp110
F194.18699697782668
aF217.8360841066272
aa(lp111
F194.00058349795802
aF218.69261228278464
aa(lp112
F193.50254622878629
aF219.46801023775913
aa(lp113
F193.00450895961464
aF220.24340819273363
aa(lp114
F192.72483562567123
aF221.07565647483841
aa(lp115
F192.86399008692194
aF222.01694518590932
aa(lp116
F192.93788961212852
aF222.94124499056079
aa(lp117
F192.43985234295681
aF223.71664294553534
aa(lp118
F191.94181507378514
aF224.49204090050983
aa(lp119
F191.44377780461343
aF225.26743885548439
aa(lp120
F190.94574053544176
aF226.04283681045888
aa(lp121
F190.44770326627005
aF226.81823476543337
aa(lp122
F189.94966599709835
aF227.59363272040787
aa(lp123
F189.45162872792667
aF228.36903067538236
aa(lp124
F188.95359145875497
aF229.14442863035686
aa(lp125
F188.45555418958327
aF229.91982658533135
aa(lp126
F187.95751692041159
aF230.6952245403059
aa(lp127
F187.45947965123989
aF231.4706224952804
aa(lp128
F186.96144238206821
aF232.24602045025489
aa(lp129
F186.46340511289651
aF233.02141840522944
aa(lp130
F185.96536784372481
aF233.79681636020393
aa(lp131
F185.46733057455313
aF234.57221431517843
aa(lp132
F184.96929330538143
aF235.34761227015292
aa(lp133
F184.47125603620975
aF236.12301022512742
aa(lp134
F183.97321876703805
aF236.89840818010191
aa(lp135
F183.47518149786634
aF237.6738061350764
aa(lp136
F182.97714422869467
aF238.44920409005096
aa(lp137
F182.47910695952297
aF239.22460204502545
aa(lp138
F181.98106969035129
aF240
aa(lp139
F232.88070433201648
aF135.76935431615624
aa(lp140
F232.18587293647931
aF135.21356900982551
aa(lp141
F231.49104154094215
aF134.65778370349483
aa(lp142
F230.79621014540498
aF134.10199839716415
aa(lp143
F230.10137874986776
aF133.54621309083342
aa(lp144
F229.4065473543306
aF132.99042778450274
aa(lp145
F228.71171595879343
aF132.43464247817201
aa(lp146
F228.01688456325621
aF131.87885717184133
aa(lp147
F227.32205316771905
aF131.3230718655106
aa(lp148
F226.62722177218185
aF130.76728655917992
aa(lp149
F225.93239037664469
aF130.21150125284925
aa(lp150
F225.2375589811075
aF129.65571594651851
aa(lp151
F224.5427275855703
aF129.09993064018784
aa(lp152
F223.84789619003311
aF128.54414533385716
aa(lp153
F223.15306479449592
aF127.98836002752644
aa(lp154
F222.45823339895875
aF127.43257472119576
aa(lp155
F221.76340200342159
aF126.87678941486506
aa(lp156
F221.06857060788437
aF126.32100410853435
aa(lp157
F220.3737392123472
aF125.76521880220368
aa(lp158
F219.67890781680998
aF125.20943349587297
aa(lp159
F218.98407642127282
aF124.65364818954227
aa(lp160
F218.28924502573565
aF124.09786288321159
aa(lp161
F217.59441363019849
aF123.54207757688089
aa(lp162
F216.89958223466127
aF122.98629227055018
aa(lp163
F216.2047508391241
aF122.4305069642195
aa(lp164
F215.50991944358688
aF121.8747216578888
aa(lp165
F214.81508804804972
aF121.31893635155809
aa(lp166
F214.12025665251255
aF120.76315104522742
aa(lp167
F213.42542525697536
aF120.20736573889671
aa(lp168
F212.73059386143817
aF119.65158043256601
aa(lp169
F212.035762465901
aF119.09579512623533
aa(lp170
F211.34093107036381
aF118.54000981990463
aa(lp171
F210.64609967482662
aF117.98422451357392
aa(lp172
F209.95126827928942
aF117.42843920724324
aa(lp173
F209.25643688375226
aF116.87265390091254
aa(lp174
F208.56160548821509
aF116.31686859458183
aa(lp175
F207.86677409267787
aF115.76108328825116
aa(lp176
F207.17194269714071
aF115.20529798192045
aa(lp177
F206.47711130160351
aF114.64951267558975
aa(lp178
F205.78227990606632
aF114.09372736925907
aa(lp179
F205.08744851052916
aF113.53794206292837
aa(lp180
F204.39261711499199
aF112.98215675659766
aa(lp181
F203.69778571945477
aF112.42637145026698
aa(lp182
F203.00295432391761
aF111.87058614393628
aa(lp183
F202.30812292838039
aF111.3148008376056
aa(lp184
F201.61329153284322
aF110.7590155312749
aa(lp185
F200.91846013730606
aF110.20323022494419
aa(lp186
F200.22362874176889
aF109.64744491861352
aa(lp187
F199.52879734623167
aF109.09165961228281
aa(lp188
F198.83396595069451
aF108.53587430595211
aa(lp189
F198.13913455515728
aF107.98008899962143
aa(lp190
F197.44430315962012
aF107.42430369329072
aa(lp191
F196.74947176408295
aF106.86851838696002
aa(lp192
F196.05464036854576
aF106.31273308062934
aa(lp193
F195.35980897300857
aF105.75694777429864
aa(lp194
F194.66497757747138
aF105.20116246796793
aa(lp195
F193.97014618193421
aF104.64537716163726
aa(lp196
F193.27531478639702
aF104.08959185530655
aa(lp197
F192.58048339085983
aF103.53380654897585
aa(lp198
F191.88565199532266
aF102.97802124264517
aa(lp199
F191.1908205997855
aF102.42223593631446
aa(lp200
F190.49598920424827
aF101.86645062998376
aa(lp201
F189.80115780871111
aF101.31066532365308
aa(lp202
F189.10632641317389
aF100.75488001732238
aa(lp203
F188.40391548682456
aF100.23535077896965
aa(lp204
F187.56042996494398
aF100.39064037206002
aa(lp205
F186.7169444430634
aF100.54592996515039
aa(lp206
F185.99397289865274
aF100.12475076779306
aa(lp207
F185.29914150311558
aF99.568965461462355
aa(lp208
F184.60431010757836
aF99.01318015513165
aa(lp209
F183.90947871204119
aF98.457394848800973
aa(lp210
F183.21464731650403
aF97.901609542470268
aa(lp211
F182.51981592096686
aF97.345824236139592
aa(lp212
F181.82498452542964
aF96.790038929808887
aa(lp213
F181.13015312989248
aF96.234253623478182
aa(lp214
F180.43532173435528
aF95.678468317147505
aa(lp215
F179.74049033881809
aF95.1226830108168
aa(lp216
F179.04565894328093
aF94.566897704486095
aa(lp217
F178.35082754774373
aF94.011112398155419
aa(lp218
F177.65599615220654
aF93.455327091824657
aa(lp219
F176.96116475666935
aF92.899541785494009
aa(lp220
F176.26633336113218
aF92.343756479163275
aa(lp221
F175.57150196559499
aF91.787971172832627
aa(lp222
F174.8766705700578
aF91.232185866501894
aa(lp223
F174.1818391745206
aF90.676400560171189
aa(lp224
F173.48700777898341
aF90.120615253840512
aa(lp225
F172.79217638344625
aF89.564829947509807
aa(lp226
F172.09734498790905
aF89.009044641179102
aa(lp227
F171.40251359237186
aF88.453259334848426
aa(lp228
F170.7076821968347
aF87.897474028517749
aa(lp229
F170.01285080129753
aF87.341688722187044
aa(lp230
F169.31801940576034
aF86.785903415856339
aa(lp231
F168.62318801022315
aF86.230118109525662
aa(lp232
F167.92835661468598
aF85.674332803194957
aa(lp233
F167.23352521914879
aF85.118547496864252
aa(lp234
F166.5386938236116
aF84.562762190533547
aa(lp235
F165.84386242807443
aF84.006976884202842
aa(lp236
F165.14903103253724
aF83.451191577872166
aa(lp237
F164.45419963700004
aF82.895406271541461
aa(lp238
F163.75936824146285
aF82.339620965210756
aa(lp239
F163.06453684592569
aF81.783835658880079
aa(lp240
F162.36970545038849
aF81.228050352549374
aa(lp241
F161.6748740548513
aF80.672265046218669
aa(lp242
F160.98004265931411
aF80.116479739887993
aa(lp243
F160.28521126377692
aF79.560694433557288
aa(lp244
F159.59037986823975
aF79.004909127226583
aa(lp245
F158.89554847270256
aF78.449123820895906
aa(lp246
F158.20071707716536
aF77.893338514565201
aa(lp247
F157.5058856816282
aF77.337553208234496
aa(lp248
F156.81105428609101
aF76.78176790190382
aa(lp249
F156.11622289055384
aF76.225982595573115
aa(lp250
F155.42139149501668
aF75.670197289242438
aa(lp251
F154.72656009947949
aF75.114411982911733
aa(lp252
F154.03172870394229
aF74.558626676581028
aa(lp253
F153.33689730840513
aF74.002841370250351
aa(lp254
F152.64206591286793
aF73.447056063919646
aa(lp255
F151.94723451733074
aF72.891270757588941
aa(lp256
F151.25240312179355
aF72.335485451258265
aa(lp257
F150.55757172625638
aF71.77970014492756
aa(lp258
F149.86274033071919
aF71.223914838596855
aa(lp259
F149.167908935182
aF70.668129532266178
aa(lp260
F148.47307753964481
aF70.112344225935473
aa(lp261
F147.77824614410764
aF69.556558919604768
aa(lp262
F147.08341474857045
aF69.000773613274092
aa(lp263
F146.38858335303325
aF68.444988306943387
aa(lp264
F145.69375195749609
aF67.889203000612682
aa(lp265
F144.9989205619589
aF67.333417694282005
aa(lp266
F144.30408916642173
aF66.7776323879513
aa(lp267
F143.60925777088454
aF66.221847081620595
aa(lp268
F142.91442637534735
aF65.666061775289919
aa(lp269
F142.21959497981018
aF65.110276468959214
aa(lp270
F141.52476358427299
aF64.554491162628509
aa(lp271
F140.8299321887358
aF63.998705856297832
aa(lp272
F140.13510079319863
aF63.442920549967127
aa(lp273
F139.44026939766144
aF62.887135243636422
aa(lp274
F138.74543800212425
aF62.331349937305745
aa(lp275
F138.05060660658705
aF61.77556463097504
aa(lp276
F137.35577521104989
aF61.219779324644335
aa(lp277
F136.66094381551272
aF60.663994018313659
aa(lp278
F135.96611241997553
aF60.108208711982954
aa(lp279
F135.27128102443834
aF59.552423405652277
aa(lp280
F134.57644962890114
aF58.996638099321572
aa(lp281
F133.88161823336398
aF58.440852792990867
aa(lp282
F133.18678683782679
aF57.885067486660191
aa(lp283
F132.49195544228959
aF57.329282180329486
aa(lp284
F131.7971240467524
aF56.773496873998781
aa(lp285
F131.10229265121521
aF56.217711567668104
aa(lp286
F130.40746125567804
aF55.661926261337399
aa(lp287
F129.71262986014085
aF55.106140955006694
aa(lp288
F129.01779846460366
aF54.550355648676017
aa(lp289
F128.32296706906649
aF53.994570342345312
aa(lp290
F127.62813567352931
aF53.438785036014607
aa(lp291
F126.93330427799214
aF52.882999729683903
aa(lp292
F126.23847288245494
aF52.327214423353198
aa(lp293
F125.54364148691776
aF51.771429117022521
aa(lp294
F124.84881009138059
aF51.215643810691816
aa(lp295
F124.15397869584339
aF50.659858504361111
aa(lp296
F123.4591473003062
aF50.104073198030434
aa(lp297
F122.76431590476903
aF49.548287891699729
aa(lp298
F122.06948450923184
aF48.992502585369024
aa(lp299
F121.37465311369465
aF48.436717279038348
aa(lp300
F120.67982171815748
aF47.880931972707643
aa(lp301
F119.98499032262029
aF47.325146666376938
aa(lp302
F119.29015892708311
aF46.769361360046261
aa(lp303
F118.59532753154592
aF46.213576053715556
aa(lp304
F117.90049613600873
aF45.657790747384851
aa(lp305
F117.20566474047156
aF45.102005441054175
aa(lp306
F116.51083334493437
aF44.54622013472347
aa(lp307
F115.81600194939718
aF43.990434828392765
aa(lp308
F115.12117055386001
aF43.434649522062088
aa(lp309
F114.42633915832282
aF42.878864215731383
aa(lp310
F113.73150776278563
aF42.323078909400678
aa(lp311
F113.03667636724846
aF41.767293603069973
aa(lp312
F112.34184497171127
aF41.211508296739268
aa(lp313
F111.64701357617407
aF40.655722990408591
aa(lp314
F110.9521821806369
aF40.099937684077887
aa(lp315
F110.25735078509973
aF39.544152377747182
aa(lp316
F109.56251938956252
aF38.988367071416505
aa(lp317
F108.86768799402535
aF38.4325817650858
aa(lp318
F108.17285659848818
aF37.876796458755095
aa(lp319
F107.47802520295096
aF37.321011152424418
aa(lp320
F106.7831938074138
aF36.765225846093713
aa(lp321
F106.08836241187662
aF36.209440539763037
aa(lp322
F105.39353101633941
aF35.653655233432332
aa(lp323
F104.69869962080224
aF35.097869927101627
aa(lp324
F104.00386822526507
aF34.54208462077095
aa(lp325
F103.30903682972787
aF33.986299314440245
aa(lp326
F102.61420543419068
aF33.43051400810954
aa(lp327
F101.91937403865352
aF32.874728701778864
aa(lp328
F101.22454264311632
aF32.318943395448159
aa(lp329
F100.52971124757913
aF31.763158089117454
aa(lp330
F99.834879852041965
aF31.207372782786777
aa(lp331
F99.140048456504772
aF30.651587476456072
aa(lp332
F98.445217060967579
aF30.095802170125367
aa(lp333
F97.7503856654304
aF29.54001686379469
aa(lp334
F97.055554269893207
aF28.984231557463985
aa(lp335
F96.360722874356028
aF28.42844625113328
aa(lp336
F95.665891478818835
aF27.872660944802604
aa(lp337
F94.971060083281657
aF27.316875638471899
aa(lp338
F94.276228687744478
aF26.761090332141194
aa(lp339
F93.581397292207299
aF26.205305025810517
aa(lp340
F92.886565896670106
aF25.649519719479812
aa(lp341
F92.191734501132927
aF25.093734413149107
aa(lp342
F91.496903105595749
aF24.537949106818431
aa(lp343
F90.802071710058556
aF23.982163800487726
aa(lp344
F90.107240314521377
aF23.426378494157021
aa(lp345
F89.412408918984184
aF22.870593187826344
aa(lp346
F88.717577523447005
aF22.314807881495639
aa(lp347
F88.022746127909812
aF21.759022575164948
aa(lp348
F87.327914732372633
aF21.203237268834258
aa(lp349
F86.633083336835455
aF20.647451962503553
aa(lp350
F85.938251941298276
aF20.091666656172862
aa(lp351
F85.243420545761083
aF19.535881349842171
aa(lp352
F84.548589150223904
aF18.980096043511466
aa(lp353
F83.853757754686725
aF18.424310737180775
aa(lp354
F83.158926359149532
aF17.868525430850056
aa(lp355
F82.464094963612354
aF17.312740124519365
aa(lp356
F81.769263568075161
aF16.756954818188674
aa(lp357
F81.074432172537982
aF16.201169511857969
aa(lp358
F80.379600777000789
aF15.645384205527279
aa(lp359
F79.68476938146361
aF15.089598899196588
aa(lp360
F78.989937985926431
aF14.533813592865883
aa(lp361
F78.295106590389253
aF13.978028286535192
aa(lp362
F77.60027519485206
aF13.422242980204501
aa(lp363
F76.905443799314881
aF12.866457673873811
aa(lp364
F76.210612403777688
aF12.310672367543106
aa(lp365
F75.515781008240509
aF11.754887061212415
aa(lp366
F74.820949612703316
aF11.199101754881724
aa(lp367
F74.126118217166137
aF10.643316448551019
aa(lp368
F73.431286821628959
aF10.087531142220328
aa(lp369
F72.736455426091766
aF9.531745835889609
aa(lp370
F72.041624030554587
aF8.9759605295589182
aa(lp371
F71.346792635017408
aF8.4201752232282274
aa(lp372
F70.917499309322764
aF7.6801716711935057
aa(lp373
F70.778344848072052
aF6.7388829601225808
aa(lp374
F70.507174356290122
aF5.8891809716774901
aa(lp375
F69.812342960752943
aF5.3333956653467851
aa(lp376
F69.117511565215764
aF4.7776103590160943
aa(lp377
F68.422680169678571
aF4.2218250526854035
aa(lp378
F67.727848774141393
aF3.6660397463546985
aa(lp379
F67.0330173786042
aF3.1102544400240077
aa(lp380
F66.338185983067021
aF2.554469133693317
aa(lp381
F65.643354587529828
aF1.998683827362612
aa(lp382
F64.948523191992663
aF1.4428985210319212
aa(lp383
F64.25369179645547
aF0.88711321470123039
aa(lp384
F63.558860400918277
aF0.3313279083705396
aa(lp385
F62.963056860634239
aF0
aa(lp386
F62.934087915676663
aF0.95346431514622054
aa(lp387
F62.905118970719073
aF1.9069286302924553
aa(lp388
F62.876150025761468
aF2.8603929454387043
aa(lp389
F62.847181080803871
aF3.813857260584939
aa(lp390
F62.818212135846245
aF4.7673215757311738
aa(lp391
F62.584219437596992
aF5.6429553668091756
aa(lp392
F62.086182168425296
aF6.4183533217836697
aa(lp393
F61.588144899253606
aF7.1937512767581779
aa(lp394
F61.090107630081917
aF7.9691492317327004
aa(lp395
F60.59207036091022
aF8.7445471867071944
aa(lp396
F60.094033091738531
aF9.5199451416817027
aa(lp397
F59.595995822566834
aF10.295343096656225
aa(lp398
F59.097958553395145
aF11.070741051630705
aa(lp399
F58.599921284223448
aF11.846139006605227
aa(lp400
F58.101884015051759
aF12.621536961579736
aa(lp401
F57.60384674588007
aF13.39693491655423
aa(lp402
F57.105809476708373
aF14.172332871528752
aa(lp403
F56.607772207536684
aF14.94773082650326
aa(lp404
F56.10973493836498
aF15.723128781477755
aa(lp405
F55.61169766919329
aF16.498526736452277
aa(lp406
F55.113660400021594
aF17.273924691426785
aa(lp407
F54.615623130849904
aF18.049322646401279
aa(lp408
F54.117585861678208
aF18.824720601375788
aa(lp409
F53.619548592506519
aF19.60011855635031
aa(lp410
F53.121511323334822
aF20.375516511324804
aa(lp411
F52.623474054163133
aF21.150914466299312
aa(lp412
F52.125436784991443
aF21.926312421273835
aa(lp413
F51.627399515819747
aF22.701710376248315
aa(lp414
F51.129362246648057
aF23.477108331222823
aa(lp415
F50.631324977476361
aF24.252506286197345
aa(lp416
F50.133287708304671
aF25.027904241171839
aa(lp417
F49.635250439132975
aF25.803302196146333
aa(lp418
F49.137213169961285
aF26.578700151120856
aa(lp419
F48.639175900789596
aF27.354098106095378
aa(lp420
F48.141138631617899
aF28.129496061069872
aa(lp421
F47.64310136244621
aF28.904894016044366
aa(lp422
F47.145064093274513
aF29.680291971018889
aa(lp423
F46.647026824102824
aF30.455689925993383
aa(lp424
F46.148989554931127
aF31.231087880967905
aa(lp425
F45.650952285759438
aF32.006485835942399
aa(lp426
F45.152915016587748
aF32.781883790916893
aa(lp427
F44.654877747416037
aF33.557281745891416
aa(lp428
F44.156840478244341
aF34.332679700865938
aa(lp429
F43.658803209072651
aF35.108077655840432
aa(lp430
F43.160765939900955
aF35.883475610814926
aa(lp431
F42.662728670729265
aF36.658873565789449
aa(lp432
F42.164691401557569
aF37.434271520763943
aa(lp433
F41.666654132385879
aF38.209669475738465
aa(lp434
F41.16861686321419
aF38.985067430712988
aa(lp435
F40.670579594042493
aF39.760465385687482
aa(lp436
F40.172542324870804
aF40.535863340661976
aa(lp437
F39.674505055699115
aF41.311261295636498
aa(lp438
F39.176467786527418
aF42.086659250610992
aa(lp439
F38.678430517355729
aF42.862057205585486
aa(lp440
F38.180393248184032
aF43.637455160560009
aa(lp441
F37.682355979012343
aF44.412853115534503
aa(lp442
F37.184318709840646
aF45.188251070508997
aa(lp443
F36.686281440668957
aF45.963649025483519
aa(lp444
F36.188244171497267
aF46.739046980458042
aa(lp445
F35.690206902325571
aF47.514444935432536
aa(lp446
F35.192169633153881
aF48.28984289040703
aa(lp447
F34.694132363982185
aF49.065240845381553
aa(lp448
F34.196095094810495
aF49.840638800356047
aa(lp449
F33.698057825638799
aF50.616036755330569
aa(lp450
F33.200020556467109
aF51.391434710305091
aa(lp451
F32.70198328729542
aF52.166832665279586
aa(lp452
F32.203946018123723
aF52.94223062025408
aa(lp453
F31.705908748952034
aF53.717628575228602
aa(lp454
F31.207871479780337
aF54.493026530203096
aa(lp455
F30.709834210608648
aF55.268424485177619
aa(lp456
F30.043192328060066
aF55.741163127831427
aa(lp457
F29.199706806179492
aF55.896452720921801
aa(lp458
F28.441819113819513
aF56.205397541469935
aa(lp459
F27.943781844647816
aF56.980795496444458
aa(lp460
F27.445744575476127
aF57.756193451418952
aa(lp461
F26.94770730630443
aF58.531591406393474
aa(lp462
F26.449670037132741
aF59.306989361367968
aa(lp463
F25.951632767961051
aF60.082387316342462
aa(lp464
F25.453595498789355
aF60.857785271316985
aa(lp465
F24.955558229617665
aF61.633183226291507
aa(lp466
F24.457520960445969
aF62.408581181266001
aa(lp467
F23.959483691274279
aF63.183979136240495
aa(lp468
F23.461446422102586
aF63.959377091215018
aa(lp469
F22.963409152930893
aF64.734775046189512
aa(lp470
F22.465371883759204
aF65.510173001164034
aa(lp471
F21.768767610477333
aF65.929126658975591
aa(lp472
F20.925282088596752
aF66.084416252065964
aa(lp473
F20.197356786970065
aF66.447146057456351
aa(lp474
F19.699319517798372
aF67.222544012430873
aa(lp475
F19.201282248626683
aF67.997941967405367
aa(lp476
F18.703244979454986
aF68.77333992237989
aa(lp477
F18.205207710283297
aF69.548737877354384
aa(lp478
F17.707170441111604
aF70.324135832328878
aa(lp479
F17.209133171939911
aF71.0995337873034
aa(lp480
F16.711095902768218
aF71.874931742277923
aa(lp481
F16.213058633596525
aF72.650329697252417
aa(lp482
F15.715021364424834
aF73.425727652226911
aa(lp483
F15.216984095253141
aF74.201125607201433
aa(lp484
F14.718946826081428
aF74.976523562175927
aa(lp485
F14.220909556909737
aF75.751921517150421
aa(lp486
F13.722872287738044
aF76.527319472124944
aa(lp487
F13.198089634842265
aF77.254707237558634
aa(lp488
F12.354604112961706
aF77.409996830649007
aa(lp489
F11.511118591081127
aF77.56528642373938
aa(lp490
F10.956819921777235
aF78.239690483391783
aa(lp491
F10.458782652605542
aF79.015088438366305
aa(lp492
F9.9607453834338493
aF79.7904863933408
aa(lp493
F9.4627081142621581
aF80.565884348315294
aa(lp494
F8.9646708450904651
aF81.341282303289816
aa(lp495
F8.4666335759187721
aF82.116680258264338
aa(lp496
F7.96859630674708
aF82.892078213238833
aa(lp497
F7.4705590375753879
aF83.667476168213355
aa(lp498
F6.9725217684036949
aF84.442874123187849
aa(lp499
F6.4744844992320028
aF85.218272078162343
aa(lp500
F5.9764472300603106
aF85.993670033136866
aa(lp501
F5.4784099608886176
aF86.769067988111388
aa(lp502
F4.9803726917169255
aF87.544465943085882
aa(lp503
F4.4823354225452325
aF88.319863898060376
aa(lp504
F3.9842981533735404
aF89.095261853034899
aa(lp505
F3.4862608842018474
aF89.870659808009393
aa(lp506
F2.9882236150301553
aF90.646057762983887
aa(lp507
F2.4901863458584632
aF91.421455717958409
aa(lp508
F1.9921490766867702
aF92.196853672932903
aa(lp509
F1.4941118075150781
aF92.972251627907397
aa(lp510
F0.996074538343386
aF93.747649582881948
aa(lp511
F0.498037269171693
aF94.523047537856442
aa(lp512
F0
aF95.298445492830936
aa.