(lp1
I0
aI0
aI0
aI10
aI0
aI0
aI12
aI6
aI5
aI12
aI5
aI0
aI3
aI0
aI1
aI0
a.(lp1
I0
aI0
aI0
aI0
aI0
aI0
aI0
aI10
aI0
aI0
aI0
aI0
aI0
aI0
aI0
aI10
aI0
aI0
aI0
aI0
aI0
aI0
aI12
aI3
aI0
aI0
aI0
aI0
aI8
aI6
aI1
aI0
aI4
aI0
aI0
aI0
aI10
aI0
aI0
aI0
aI5
aI0
aI6
aI3
aI15
aI0
aI0
aI0
aI3
aI3
aI0
aI0
aI11
aI4
aI0
aI0
aI0
aI0
aI0
aI0
aI10
aI5
aI0
aI0
a.(lp1
(lp2
F232.1956198909001
aF0
aa(lp3
F232.50692594298243
aF1.2017304907296307
aa(lp4
F232.81823199506476
aF2.4034609814592613
aa(lp5
F233.12953804714715
aF3.6051914721889489
aa(lp6
F233.44084409922942
aF4.8069219629185795
aa(lp7
F233.75215015131181
aF6.0086524536482102
aa(lp8
F234.06345620339408
aF7.2103829443778693
aa(lp9
F234.37476225547641
aF8.4121134351075
aa(lp10
F234.6860683075588
aF9.6138439258371591
aa(lp11
F234.99737435964113
aF10.815574416566818
aa(lp12
F235.30868041172346
aF12.017304907296449
aa(lp13
F235.61998646380579
aF13.21903539802608
aa(lp14
F235.93129251588812
aF14.420765888755739
aa(lp15
F236.24259856797039
aF15.622496379485398
aa(lp16
F236.55390462005278
aF16.824226870215028
aa(lp17
F236.86521067213511
aF18.025957360944687
aa(lp18
F237.17651672421744
aF19.227687851674318
aa(lp19
F237.48782277629977
aF20.429418342403949
aa(lp20
F237.79912882838209
aF21.631148833133608
aa(lp21
F238.11043488046442
aF22.832879323863267
aa(lp22
F238.42174093254675
aF24.034609814592898
aa(lp23
F238.73304698462908
aF25.236340305322557
aa(lp24
F239.04435303671141
aF26.438070796052187
aa(lp25
F239.35565908879374
aF27.639801286781818
aa(lp26
F239.60706890134355
aF28.838207699160307
aa(lp27
F239.23118454345138
aF30.001800991582172
aa(lp28
F238.85530018555914
aF31.165394284004009
aa(lp29
F239.05159597239197
aF32.360742017888441
aa(lp30
F239.19904304309847
aF33.553378780916802
aa(lp31
F238.82315868520635
aF34.716972073338667
aa(lp32
F238.44727432731412
aF35.880565365760532
aa(lp33
F238.74753285599019
aF37.081682748995007
aa(lp34
F238.79101718485344
aF38.268549862673297
aa(lp35
F238.41513282696127
aF39.432143155095162
aa(lp36
F238.13216368750597
aF40.600892989371943
aa(lp37
F238.44346973958835
aF41.802623480101602
aa(lp38
F238.75477579167062
aF43.004353970831232
aa(lp39
F239.06608184375301
aF44.206084461560891
aa(lp40
F239.37738789583534
aF45.407814952290522
aa(lp41
F239.68869394791767
aF46.609545443020181
aa(lp42
F240
aF47.811275933749812
aa(lp43
F239.79010425711868
aF48.984081142746192
aa(lp44
F239.41421989922645
aF50.147674435168057
aa(lp45
F239.03833554133428
aF51.311267727589978
aa(lp46
F238.66245118344204
aF52.474861020011843
aa(lp47
F238.17009403766662
aF53.458943910202152
aa(lp48
F237.32720722876923
aF53.902782834701839
aa(lp49
F236.79030781650647
aF54.818216211827746
aa(lp50
F236.41442345861424
aF55.981809504249583
aa(lp51
F235.85141507185915
aF56.857003160165533
aa(lp52
F235.00852826296176
aF57.300842084665248
aa(lp53
F234.16564145406437
aF57.744681009164964
aa(lp54
F233.42190544052738
aF58.3413333030378
aa(lp55
F233.04602108263521
aF59.504926595459665
aa(lp56
F232.67013672474297
aF60.668519887881558
aa(lp57
F231.84696248825685
aF61.142740259128402
aa(lp58
F231.00407567935952
aF61.586579183628118
aa(lp59
F230.16118887046213
aF62.030418108127833
aa(lp60
F229.67761870665612
aF63.028043686669747
aa(lp61
F229.30173434876389
aF64.191636979091612
aa(lp62
F228.685396713552
aF64.984638433591527
aa(lp63
F227.84250990465461
aF65.428477358091243
aa(lp64
F226.99962309575722
aF65.872316282590958
aa(lp65
F226.15673628685988
aF66.316155207090674
aa(lp66
F225.31384947796249
aF66.759994131590389
aa(lp67
F224.4709626690651
aF67.203833056090104
aa(lp68
F223.62807586016771
aF67.647671980589791
aa(lp69
F222.78518905127032
aF68.091510905089535
aa(lp70
F221.94230224237293
aF68.535349829589251
aa(lp71
F221.0994154334756
aF68.979188754088966
aa(lp72
F220.25652862457821
aF69.423027678588653
aa(lp73
F219.41364181568082
aF69.866866603088368
aa(lp74
F218.57075500678343
aF70.310705527588084
aa(lp75
F217.72786819788604
aF70.754544452087799
aa(lp76
F216.88498138898865
aF71.198383376587543
aa(lp77
F216.04209458009132
aF71.642222301087259
aa(lp78
F215.19920777119387
aF72.086061225586946
aa(lp79
F214.35632096229648
aF72.529900150086661
aa(lp80
F213.51343415339915
aF72.973739074586376
aa(lp81
F212.67054734450176
aF73.417577999086092
aa(lp82
F211.82766053560437
aF73.861416923585779
aa(lp83
F210.98477372670698
aF74.305255848085494
aa(lp84
F210.14188691780959
aF74.749094772585238
aa(lp85
F209.2990001089122
aF75.192933697084953
aa(lp86
F208.45611330001481
aF75.636772621584669
aa(lp87
F207.61322649111747
aF76.080611546084384
aa(lp88
F206.77033968222008
aF76.5244504705841
aa(lp89
F205.92745287332269
aF76.968289395083787
aa(lp90
F205.0845660644253
aF77.412128319583502
aa(lp91
F204.24167925552791
aF77.855967244083217
aa(lp92
F203.50400368218408
aF78.461960020626208
aa(lp93
F203.12811932429184
aF79.625553313048073
aa(lp94
F202.75223496639967
aF80.789146605469966
aa(lp95
F201.92300028972045
aF81.254026494046656
aa(lp96
F201.25597595735627
aF81.968908504864061
aa(lp97
F200.88009159946409
aF83.132501797285926
aa(lp98
F200.44720813281032
aF84.20824681951035
aa(lp99
F199.60432132391298
aF84.652085744010066
aa(lp100
F198.76143451501559
aF85.095924668509781
aa(lp101
F197.9185477061182
aF85.539763593009468
aa(lp102
F197.51168922348501
aF86.655618888495923
aa(lp103
F197.13580486559277
aF87.819212180917788
aa(lp104
F196.44275554920813
aF88.493983918473191
aa(lp105
F195.59986874031074
aF88.937822842972906
aa(lp106
F194.75698193141335
aF89.381661767472622
aa(lp107
F193.91409512251596
aF89.825500691972309
aa(lp108
F193.07120831361857
aF90.269339616472024
aa(lp109
F192.22832150472118
aF90.713178540971768
aa(lp110
F191.38543469582385
aF91.157017465471455
aa(lp111
F190.54254788692646
aF91.60085638997117
aa(lp112
F189.69966107802901
aF92.044695314470886
aa(lp113
F188.85677426913162
aF92.488534238970601
aa(lp114
F188.01388746023429
aF92.932373163470317
aa(lp115
F187.1710006513369
aF93.376212087970032
aa(lp116
F186.32811384243956
aF93.820051012469776
aa(lp117
F185.48522703354212
aF94.263889936969463
aa(lp118
F184.79712685787848
aF94.946289398198985
aa(lp119
F184.42124249998631
aF96.109882690620879
aa(lp120
F184.00943487663204
aF97.218110262433157
aa(lp121
F183.16654806773465
aF97.661949186932873
aa(lp122
F182.32366125883726
aF98.105788111432588
aa(lp123
F181.48077444993987
aF98.549627035932303
aa(lp124
F180.63788764104248
aF98.993465960432019
aa(lp125
F179.79500083214515
aF99.437304884931734
aa(lp126
F178.95211402324776
aF99.88114380943145
aa(lp127
F178.10922721435037
aF100.32498273393117
aa(lp128
F177.26634040545298
aF100.76882165843088
aa(lp129
F176.42345359655559
aF101.2126605829306
aa(lp130
F175.5805667876582
aF101.65649950743028
aa(lp131
F174.73767997876087
aF102.10033843193
aa(lp132
F173.89479316986348
aF102.54417735642971
aa(lp133
F173.05190636096609
aF102.98801628092943
aa(lp134
F172.2090195520687
aF103.43185520542914
aa(lp135
F171.36613274317131
aF103.87569412992889
aa(lp136
F170.52324593427392
aF104.3195330544286
aa(lp137
F169.68035912537658
aF104.76337197892829
aa(lp138
F168.83747231647919
aF105.20721090342801
aa(lp139
F167.9945855075818
aF105.65104982792772
aa(lp140
F167.15169869868441
aF106.09488875242744
aa(lp141
F166.30881188978702
aF106.53872767692712
aa(lp142
F165.46592508088963
aF106.98256660142684
aa(lp143
F164.6230382719923
aF107.42640552592658
aa(lp144
F163.78015146309485
aF107.8702444504263
aa(lp145
F162.93726465419746
aF108.31408337492601
aa(lp146
F162.09437784530013
aF108.75792229942573
aa(lp147
F161.25149103640274
aF109.20176122392544
aa(lp148
F160.40860422750535
aF109.64560014842513
aa(lp149
F159.56571741860796
aF110.08943907292485
aa(lp150
F158.72283060971057
aF110.53327799742459
aa(lp151
F157.87994380081318
aF110.97711692192428
aa(lp152
F157.03705699191585
aF111.42095584642399
aa(lp153
F156.19417018301846
aF111.86479477092371
aa(lp154
F155.35128337412107
aF112.30863369542342
aa(lp155
F154.50839656522368
aF112.75247261992314
aa(lp156
F153.66550975632629
aF113.19631154442285
aa(lp157
F152.8226229474289
aF113.6401504689226
aa(lp158
F151.97973613853151
aF114.08398939342229
aa(lp159
F151.13684932963417
aF114.52782831792197
aa(lp160
F150.29396252073678
aF114.97166724242172
aa(lp161
F149.45107571183939
aF115.4155061669214
aa(lp162
F148.90146748588683
aF116.31135244307038
aa(lp163
F148.52558312799465
aF117.4749457354923
aa(lp164
F148.14969877010242
aF118.63853902791416
aa(lp165
F147.77381441221024
aF119.80213232033603
aa(lp166
F147.47967415803419
aF120.97026218813593
aa(lp167
F147.79098021011657
aF122.17199267886556
aa(lp168
F147.74167291185739
aF123.35371010967069
aa(lp169
F147.36578855396516
aF124.51730340209255
aa(lp170
F147.17561104163241
aF125.69120291924256
aa(lp171
F147.48691709371474
aF126.89293340997224
aa(lp172
F147.79822314579707
aF128.09466390070182
aa(lp173
F148.05327426904387
aF129.29327239591802
aa(lp174
F147.67738991115169
aF130.45686568833989
aa(lp175
F147.30150555325946
aF131.62045898076175
aa(lp176
F147.49416002939529
aF132.81560463180844
aa(lp177
F147.64524841079884
aF134.00844347767455
aa(lp178
F147.26936405290661
aF135.17203677009647
aa(lp179
F146.89347969501443
aF136.33563006251833
aa(lp180
F147.19009691299345
aF137.53654536291506
aa(lp181
F147.23722255255382
aF138.72361455943113
aa(lp182
F146.86133819466158
aF139.88720785185299
aa(lp183
F146.57472774450935
aF141.055755603292
aa(lp184
F146.88603379659168
aF142.25748609402157
aa(lp185
F147.19733984867401
aF143.4592165847512
aa(lp186
F147.50864590075628
aF144.66094707548078
aa(lp187
F147.17293955184812
aF145.82677013810027
aa(lp188
F146.79705519395588
aF146.99036343052214
aa(lp189
F146.89327673227217
aF148.18015731585771
aa(lp190
F147.2045827843545
aF149.38188780658734
aa(lp191
F147.51588883643683
aF150.58361829731697
aa(lp192
F147.82719488851916
aF151.78534878804655
aa(lp193
F148.13850094060149
aF152.98707927877618
aa(lp194
F147.82828376657397
aF154.15431692126029
aa(lp195
F147.4523994086818
aF155.31791021368215
aa(lp196
F147.52313177211732
aF156.50628951915311
aa(lp197
F147.79614226622112
aF157.70589471059495
aa(lp198
F147.42025790832895
aF158.86948800301681
aa(lp199
F147.04437355043672
aF160.03308129543868
aa(lp200
F147.21906865571555
aF161.22723025025974
aa(lp201
F147.3881164079761
aF162.42106579235147
aa(lp202
F147.01223205008387
aF163.58465908477334
aa(lp203
F146.63634769219169
aF164.7482523771952
aa(lp204
F146.91500553931377
aF165.94817098136642
aa(lp205
F147.2263115913961
aF167.14990147209599
aa(lp206
F147.53761764347843
aF168.35163196282568
aa(lp207
F147.3238334072704
aF169.52422137102067
aa(lp208
F146.94794904937822
aF170.68781466344259
aa(lp209
F146.92224847499426
aF171.87084220320256
aa(lp210
F147.23355452707665
aF173.07257269393219
aa(lp211
F147.54486057915892
aF174.27430318466182
aa(lp212
F147.85616663124125
aF175.47603367539145
aa(lp213
F148.16747268332358
aF176.67776416612102
aa(lp214
F148.47877873540591
aF177.87949465685065
aa(lp215
F148.79008478748824
aF179.08122514758028
aa(lp216
F149.10139083957057
aF180.28295563830991
aa(lp217
F149.0425476949672
aF181.46414385558441
aa(lp218
F148.66666333707497
aF182.62773714800628
aa(lp219
F148.48602167108641
aF183.80216587868685
aa(lp220
F148.79732772316873
aF185.00389636941648
aa(lp221
F149.10863377525106
aF186.20562686014605
aa(lp222
F149.35414905215373
aF187.40370614183175
aa(lp223
F148.9782646942615
aF188.56729943425361
aa(lp224
F148.60238033636932
aF189.73089272667548
aa(lp225
F148.80457065884929
aF190.92656759125268
aa(lp226
F149.11587671093156
aF192.12829808198231
aa(lp227
F149.42718276301389
aF193.33002857271194
aa(lp228
F149.73848881509628
aF194.53175906344157
aa(lp229
F150.00949326687959
aF195.73125292499182
aa(lp230
F149.63360890898736
aF196.89484621741374
aa(lp231
F149.25772455109518
aF198.05843950983561
aa(lp232
F149.43442569869444
aF199.25269979454819
aa(lp233
F149.74573175077677
aF200.45443028527777
aa(lp234
F150.0570378028591
aF201.65616077600745
aa(lp235
F150.36834385494143
aF202.85789126673703
aa(lp236
F150.66483748160545
aF204.05879970815195
aa(lp237
F150.28895312371327
aF205.22239300057387
aa(lp238
F149.91306876582104
aF206.38598629299568
aa(lp239
F150.06428073853965
aF207.57883199784365
aa(lp240
F150.37558679062192
aF208.78056248857328
aa(lp241
F150.68689284270431
aF209.98229297930285
aa(lp242
F150.99819889478664
aF211.18402347003249
aa(lp243
F151.30950494686891
aF212.38575396076212
aa(lp244
F151.62081099895124
aF213.58748445149175
aa(lp245
F151.93211705103357
aF214.78921494222138
aa(lp246
F152.2434231031159
aF215.99094543295095
aa(lp247
F152.00766741141001
aF217.16231548513755
aa(lp248
F151.63178305351784
aF218.32590877755942
aa(lp249
F151.62805393463179
aF219.51015567332794
aa(lp250
F151.93935998671412
aF220.71188616405757
aa(lp251
F152.25066603879645
aF221.91361665478721
aa(lp252
F152.56197209087873
aF223.11534714551684
aa(lp253
F152.87327814296111
aF224.31707763624647
aa(lp254
F152.66301162613593
aF225.48986226829757
aa(lp255
F152.28712726824375
aF226.65345556071944
aa(lp256
F152.25790897447695
aF227.83628787662335
aa(lp257
F152.56921502655928
aF229.03801836735292
aa(lp258
F152.88052107864155
aF230.23974885808255
aa(lp259
F153.19182713072394
aF231.44147934881224
aa(lp260
F153.50313318280627
aF232.64320983954181
aa(lp261
F153.8144392348886
aF233.84494033027144
aa(lp262
F154.12574528697087
aF235.04667082100102
aa(lp263
F154.4370513390532
aF236.24840131173065
aa(lp264
F154.38172591383272
aF237.42978475286125
aa(lp265
F154.00584155594055
aF238.59337804528312
aa(lp266
F153.49966429700305
aF239.55616107550028
aa(lp267
F152.65677748810566
aF239.99999999999997
aa(lp268
F151.83220878065117
aF239.77289780175423
aa(lp269
F151.0160711818553
aF239.23698753586891
aa(lp270
F150.41715501691516
aF238.41458482538033
aa(lp271
F150.10584896483283
aF237.2128543346507
aa(lp272
F149.7945429127505
aF236.01112384392107
aa(lp273
F149.36111484961611
aF234.97045956505261
aa(lp274
F148.54497725082024
aF234.43454929916734
aa(lp275
F147.72883965202436
aF233.89863903328202
aa(lp276
F147.41116382755575
aF232.70530960882891
aa(lp277
F147.09985777547337
aF231.50357911809934
aa(lp278
F146.78855172339104
aF230.30184862736971
aa(lp279
F146.47724567130876
aF229.10011813664008
aa(lp280
F146.06254275246141
aF228.03475734294275
aa(lp281
F145.24640515366553
aF227.49884707705749
aa(lp282
F144.43026755486966
aF226.96293681117223
aa(lp283
F144.09386658611396
aF225.79430390154792
aa(lp284
F143.78256053403163
aF224.59257341081835
aa(lp285
F143.47125448194936
aF223.39084292008872
aa(lp286
F143.15994842986697
aF222.18911242935908
aa(lp287
F142.84864237778464
aF220.98738193862945
aa(lp288
F142.53733632570231
aF219.78565144789988
aa(lp289
F142.22603027362004
aF218.58392095717025
aa(lp290
F141.91472422153771
aF217.38219046644062
aa(lp291
F141.60341816945538
aF216.18045997571099
aa(lp292
F141.29211211737305
aF214.97872948498136
aa(lp293
F140.98080606529072
aF213.77699899425178
aa(lp294
F140.66950001320839
aF212.57526850352215
aa(lp295
F140.35819396112606
aF211.37353801279252
aa(lp296
F140.04688790904373
aF210.17180752206289
aa(lp297
F139.7355818569614
aF208.97007703133326
aa(lp298
F139.4200362888572
aF207.77393802063156
aa(lp299
F138.60389869006133
aF207.23802775474635
aa(lp300
F137.78776109126545
aF206.70211748886109
aa(lp301
F137.35220277176666
aF205.66426279624116
aa(lp302
F136.9602829251458
aF204.56885350345286
aa(lp303
F136.14414532634999
aF204.03294323756759
aa(lp304
F135.32800772755411
aF203.49703297168233
aa(lp305
F134.96882368657185
aF202.358448561149
aa(lp306
F134.65751763448952
aF201.15671807041937
aa(lp307
F134.34621158240719
aF199.95498757968974
aa(lp308
F134.03490553032486
aF198.75325708896011
aa(lp309
F133.72359947824259
aF197.55152659823054
aa(lp310
F133.41229342616026
aF196.34979610750091
aa(lp311
F133.10098737407787
aF195.14806561677128
aa(lp312
F132.78968132199554
aF193.94633512604165
aa(lp313
F132.47837526991327
aF192.74460463531202
aa(lp314
F132.16706921783094
aF191.54287414458244
aa(lp315
F131.85576316574861
aF190.34114365385281
aa(lp316
F131.54445711366628
aF189.13941316312318
aa(lp317
F131.23315106158395
aF187.93768267239355
aa(lp318
F130.92184500950162
aF186.73595218166398
aa(lp319
F130.61053895741929
aF185.53422169093434
aa(lp320
F130.29923290533696
aF184.33249120020471
aa(lp321
F129.98792685325463
aF183.13076070947508
aa(lp322
F129.67662080117231
aF181.92903021874545
aa(lp323
F129.36531474908998
aF180.72729972801588
aa(lp324
F129.05400869700765
aF179.52556923728625
aa(lp325
F128.74270264492537
aF178.32383874655662
aa(lp326
F128.43139659284304
aF177.12210825582699
aa(lp327
F128.12009054076071
aF175.92037776509736
aa(lp328
F127.8087844886784
aF174.71864727436778
aa(lp329
F127.49747843659607
aF173.51691678363815
aa(lp330
F127.18617238451371
aF172.31518629290846
aa(lp331
F126.87486633243138
aF171.11345580217889
aa(lp332
F126.56356028034908
aF169.91172531144926
aa(lp333
F126.25225422826675
aF168.70999482071969
aa(lp334
F125.94094817618442
aF167.50826432999006
aa(lp335
F125.62964212410209
aF166.30653383926042
aa(lp336
F125.31833607201979
aF165.10480334853079
aa(lp337
F125.00703001993746
aF163.90307285780116
aa(lp338
F124.48006702940957
aF162.98577140519293
aa(lp339
F123.66392943061372
aF162.44986113930767
aa(lp340
F122.93495698682499
aF161.79898911343869
aa(lp341
F122.62365093474268
aF160.59725862270906
aa(lp342
F122.31234488266035
aF159.39552813197949
aa(lp343
F122.00103883057803
aF158.19379764124986
aa(lp344
F121.19283549957866
aF157.64742290260605
aa(lp345
F120.37669790078279
aF157.11151263672073
aa(lp346
F119.92896579746561
aF156.08971389688739
aa(lp347
F119.61765974538328
aF154.88798340615776
aa(lp348
F119.30635369330092
aF153.68625291542818
aa(lp349
F118.99504764121859
aF152.48452242469855
aa(lp350
F118.68374158913629
aF151.28279193396887
aa(lp351
F117.89426340242399
aF150.71172068049626
aa(lp352
F117.07812580362811
aF150.17581041461099
aa(lp353
F116.24345989921569
aF150.31854046588458
aa(lp354
F115.40057309031833
aF150.76237939038427
aa(lp355
F114.55768628142097
aF151.20621831488401
aa(lp356
F113.71479947252364
aF151.65005723938364
aa(lp357
F112.87191266362628
aF152.09389616388339
aa(lp358
F112.02902585472889
aF152.53773508838307
aa(lp359
F111.18613904583152
aF152.98157401288282
aa(lp360
F110.34325223693416
aF153.4254129373825
aa(lp361
F109.5003654280368
aF153.86925186188219
aa(lp362
F108.65747861913947
aF154.31309078638193
aa(lp363
F107.81459181024208
aF154.75692971088162
aa(lp364
F106.97170500134472
aF155.20076863538131
aa(lp365
F106.12881819244735
aF155.644607559881
aa(lp366
F105.28593138354999
aF156.08844648438074
aa(lp367
F104.44304457465263
aF156.53228540888043
aa(lp368
F103.60015776575524
aF156.97612433338011
aa(lp369
F102.75727095685791
aF157.41996325787986
aa(lp370
F101.91438414796055
aF157.86380218237954
aa(lp371
F101.07149733906316
aF158.30764110687923
aa(lp372
F100.22861053016582
aF158.75148003137892
aa(lp373
F99.385723721268434
aF159.19531895587866
aa(lp374
F98.542836912371072
aF159.63915788037835
aa(lp375
F97.699950103473739
aF160.08299680487804
aa(lp376
F96.857063294576349
aF160.52683572937778
aa(lp377
F96.014176485678988
aF160.97067465387747
aa(lp378
F95.171289676781626
aF161.41451357837721
aa(lp379
F94.328402867884265
aF161.85835250287684
aa(lp380
F93.485516058986903
aF162.30219142737658
aa(lp381
F92.642629250089541
aF162.74603035187627
aa(lp382
F91.79974244119218
aF163.18986927637596
aa(lp383
F90.956855632294818
aF163.63370820087565
aa(lp384
F90.113968823397457
aF164.07754712537539
aa(lp385
F89.271082014500095
aF164.52138604987513
aa(lp386
F88.428195205602734
aF164.96522497437476
aa(lp387
F87.585308396705344
aF165.40906389887451
aa(lp388
F86.74242158780801
aF165.85290282337419
aa(lp389
F85.899534778910649
aF166.29674174787394
aa(lp390
F85.056647970013287
aF166.74058067237357
aa(lp391
F84.213761161115926
aF167.18441959687331
aa(lp392
F83.370874352218536
aF167.628258521373
aa(lp393
F82.527987543321174
aF168.07209744587269
aa(lp394
F81.685100734423841
aF168.51593637037243
aa(lp395
F80.84221392552648
aF168.95977529487212
aa(lp396
F79.99932711662909
aF169.40361421937186
aa(lp397
F79.156440307731728
aF169.84745314387149
aa(lp398
F78.313553498834366
aF170.29129206837123
aa(lp399
F77.470666689937005
aF170.73513099287092
aa(lp400
F76.627779881039672
aF171.17896991737067
aa(lp401
F75.784893072142282
aF171.62280884187035
aa(lp402
F74.94200626324492
aF172.06664776637004
aa(lp403
F74.099119454347559
aF172.51048669086978
aa(lp404
F73.256232645450197
aF172.95432561536947
aa(lp405
F72.413345836552836
aF173.39816453986916
aa(lp406
F71.570459027655474
aF173.84200346436884
aa(lp407
F70.727572218758112
aF174.28584238886859
aa(lp408
F69.884685409860751
aF174.72968131336827
aa(lp409
F69.041798600963389
aF175.17352023786796
aa(lp410
F68.198911792066028
aF175.61735916236771
aa(lp411
F67.356024983168638
aF176.06119808686739
aa(lp412
F66.513138174271276
aF176.50503701136708
aa(lp413
F65.670251365373943
aF176.94887593586677
aa(lp414
F64.827364556476581
aF177.39271486036651
aa(lp415
F63.984477747579191
aF177.8365537848662
aa(lp416
F63.14159093868183
aF178.28039270936588
aa(lp417
F62.298704129784468
aF178.72423163386563
aa(lp418
F61.455817320887135
aF179.16807055836532
aa(lp419
F60.612930511989774
aF179.61190948286506
aa(lp420
F59.770043703092384
aF180.05574840736469
aa(lp421
F58.927156894195022
aF180.49958733186443
aa(lp422
F58.084270085297661
aF180.94342625636412
aa(lp423
F57.241383276400299
aF181.38726518086381
aa(lp424
F56.398496467502966
aF181.83110410536349
aa(lp425
F55.555609658605576
aF182.27494302986324
aa(lp426
F54.712722849708214
aF182.71878195436298
aa(lp427
F53.869836040810853
aF183.16262087886261
aa(lp428
F53.026949231913491
aF183.60645980336236
aa(lp429
F52.18406242301613
aF184.05029872786204
aa(lp430
F51.341175614118768
aF184.49413765236179
aa(lp431
F50.498288805221378
aF184.93797657686142
aa(lp432
F49.655401996324031
aF185.38181550136116
aa(lp433
F48.812515187426683
aF185.82565442586085
aa(lp434
F47.969628378529308
aF186.26949335036053
aa(lp435
F47.126741569631932
aF186.71333227486028
aa(lp436
F46.283854760734584
aF187.15717119935996
aa(lp437
F45.440967951837223
aF187.60101012385971
aa(lp438
F44.598081142939876
aF188.0448490483594
aa(lp439
F43.7551943340425
aF188.48868797285908
aa(lp440
F42.912307525145124
aF188.93252689735877
aa(lp441
F42.069420716247762
aF189.37636582185851
aa(lp442
F41.226533907350415
aF189.8202047463582
aa(lp443
F40.383647098453039
aF190.26404367085789
aa(lp444
F39.562798412534036
aF189.90068742721084
aa(lp445
F38.74666081373816
aF189.36477716132552
aa(lp446
F37.915293409973927
aF189.3866923052698
aa(lp447
F37.072406601076565
aF189.83053122976949
aa(lp448
F36.22951979217919
aF190.27437015426918
aa(lp449
F35.386632983281842
aF190.71820907876892
aa(lp450
F34.543746174384466
aF191.16204800326867
aa(lp451
F33.700859365487105
aF191.6058869277683
aa(lp452
F32.863124408000459
aF191.86102785971067
aa(lp453
F32.046986809204583
aF191.32511759382547
aa(lp454
F31.230849210408721
aF190.78920732794015
aa(lp455
F30.389618868110603
aF191.1723744866799
aa(lp456
F29.546732059213255
aF191.61621341117959
aa(lp457
F28.703845250315879
aF192.06005233567933
aa(lp458
F27.860958441418518
aF192.50389126017902
aa(lp459
F27.022231305804368
aF192.79537291820029
aa(lp460
F26.206093707008506
aF192.25946265231508
aa(lp461
F25.389956108212644
aF191.72355238642976
aa(lp462
F24.573818509416768
aF191.1876421205445
aa(lp463
F23.757680910620905
aF190.65173185465918
aa(lp464
F22.941543311825043
aF190.11582158877391
aa(lp465
F22.125405713029181
aF189.57991132288859
aa(lp466
F21.298784184878599
aF189.42799823891497
aa(lp467
F20.455897375981209
aF189.87183716341465
aa(lp468
F19.634349613099943
aF189.53408616512834
aa(lp469
F18.818212014304066
aF188.99817589924302
aa(lp470
F18.002074415508204
aF188.4622656333577
aa(lp471
F17.185936816712342
aF187.92635536747244
aa(lp472
F16.36979921791648
aF187.39044510158718
aa(lp473
F15.553661619120589
aF186.85453483570191
aa(lp474
F14.754775463241998
aF186.29587171358796
aa(lp475
F14.443469411159683
aF185.09414122285838
aa(lp476
F13.910045854205151
aF184.18536058440847
aa(lp477
F13.093908255409303
aF183.64945031852315
aa(lp478
F12.371396378047223
aF182.99005747849597
aa(lp479
F12.060090325964893
aF181.78832698776628
aa(lp480
F11.748784273882578
aF180.58659649703665
aa(lp481
F11.437478221800262
aF179.38486600630708
aa(lp482
F10.622814324374303
aF178.84701208182153
aa(lp483
F9.8066767255784129
aF178.31110181593633
aa(lp484
F9.3654051886878165
aF177.28078226194455
aa(lp485
F9.0540991366054868
aF176.07905177121498
aa(lp486
F8.7427930845231714
aF174.87732128048535
aa(lp487
F8.151720393339204
aF174.04457384511991
aa(lp488
F7.3355827945433418
aF173.50866357923465
aa(lp489
F6.6707200514107114
aF172.77323753612288
aa(lp490
F6.359413999328396
aF171.57150704539325
aa(lp491
F6.0481079472460664
aF170.36977655466367
aa(lp492
F5.7368018951637225
aF169.16804606393399
aa(lp493
F5.4254958430814071
aF167.9663155732043
aa(lp494
F4.8531482961845143
aF167.10887162301012
aa(lp495
F4.0370106973886521
aF166.5729613571248
aa(lp496
F3.3534228099689614
aF165.86223182884189
aa(lp497
F3.0421167578866317
aF164.6605013381122
aa(lp498
F2.7308107058043021
aF163.45877084738257
aa(lp499
F2.4195046537219582
aF162.25704035665294
aa(lp500
F2.1081986016396428
aF161.05530986592331
aa(lp501
F1.7968925495573131
aF159.85357937519368
aa(lp502
F1.4855864974749693
aF158.65184888446399
aa(lp503
F1.1742804453926396
aF157.45011839373436
aa(lp504
F0.8629743933102958
aF156.24838790300467
aa(lp505
F0.55166834122796615
aF155.0466574122751
aa(lp506
F0.24036228914565072
aF153.84492692154541
aa(lp507
F0
aF152.64713361666199
aa(lp508
F0.37588435789217556
aF151.48354032424012
aa(lp509
F0.75176871578437954
aF150.31994703181826
aa(lp510
F1.1276530736766119
aF149.15635373939639
aa(lp511
F1.5035374315687875
aF147.99276044697453
aa(lp512
F1.471100626113909
aF146.80650644079154
aa(lp513
F1.1597945740315794
aF145.60477595006185
aa.