(lp1
I6
aI0
aI0
aI0
aI5
aI0
aI0
aI10
aI5
aI0
aI0
aI10
aI3
aI9
aI12
aI6
a.(lp1
I0
aI5
aI0
aI0
aI0
aI0
aI0
aI0
aI8
aI1
aI0
aI0
aI0
aI0
aI0
aI0
aI10
aI0
aI0
aI0
aI0
aI0
aI0
aI8
aI6
aI0
aI0
aI0
aI0
aI0
aI0
aI10
aI5
aI0
aI0
aI0
aI0
aI0
aI0
aI10
aI13
aI0
aI0
aI0
aI0
aI0
aI0
aI5
aI2
aI9
aI12
aI0
aI0
aI0
aI8
aI5
aI0
aI0
aI2
aI9
aI12
aI12
aI6
aI0
a.(lp1
(lp2
F240.00000000000006
aF83.525463564934313
aa(lp3
F239.72605413196146
aF84.74070059008605
aa(lp4
F239.45210826392287
aF85.955937615237787
aa(lp5
F239.17816239588433
aF87.171174640389523
aa(lp6
F238.90421652784568
aF88.38641166554126
aa(lp7
F238.63027065980714
aF89.601648690692969
aa(lp8
F238.35632479176854
aF90.816885715844734
aa(lp9
F238.08237892373
aF92.032122740996442
aa(lp10
F237.80843305569141
aF93.247359766148207
aa(lp11
F237.53448718765281
aF94.462596791299944
aa(lp12
F237.26054131961428
aF95.677833816451653
aa(lp13
F236.98659545157568
aF96.893070841603389
aa(lp14
F236.71264958353709
aF98.108307866755155
aa(lp15
F236.43870371549849
aF99.323544891906863
aa(lp16
F236.16475784745995
aF100.53878191705863
aa(lp17
F235.89081197942136
aF101.75401894221034
aa(lp18
F235.61686611138276
aF102.96925596736207
aa(lp19
F235.34292024334422
aF104.18449299251381
aa(lp20
F235.06897437530563
aF105.39973001766555
aa(lp21
F234.79502850726703
aF106.61496704281728
aa(lp22
F234.5210826392285
aF107.83020406796902
aa(lp23
F234.2471367711899
aF109.04544109312076
aa(lp24
F233.97319090315136
aF110.26067811827249
aa(lp25
F233.69924503511277
aF111.4759151434242
aa(lp26
F233.42529916707417
aF112.69115216857597
aa(lp27
F233.15135329903563
aF113.90638919372768
aa(lp28
F232.87740743099704
aF115.12162621887944
aa(lp29
F232.60346156295844
aF116.33686324403118
aa(lp30
F232.32951569491991
aF117.55210026918289
aa(lp31
F232.05556982688125
aF118.76733729433462
aa(lp32
F231.78162395884272
aF119.98257431948639
aa(lp33
F231.50767809080412
aF121.1978113446381
aa(lp34
F231.23373222276558
aF122.41304836978986
aa(lp35
F230.95978635472699
aF123.62828539494157
aa(lp36
F230.68584048668839
aF124.84352242009331
aa(lp37
F230.41189461864985
aF126.05875944524504
aa(lp38
F230.1379487506112
aF127.27399647039678
aa(lp39
F229.86400288257266
aF128.48923349554852
aa(lp40
F229.59005701453407
aF129.70447052070026
aa(lp41
F229.31611114649553
aF130.91970754585199
aa(lp42
F229.04216527845693
aF132.13494457100373
aa(lp43
F228.76821941041834
aF133.35018159615544
aa(lp44
F228.4942735423798
aF134.5654186213072
aa(lp45
F228.22032767434121
aF135.78065564645891
aa(lp46
F227.94638180630261
aF136.99589267161068
aa(lp47
F227.67243593826407
aF138.21112969676241
aa(lp48
F227.39849007022548
aF139.42636672191412
aa(lp49
F227.12454420218694
aF140.64160374706586
aa(lp50
F226.85059833414834
aF141.85684077221759
aa(lp51
F226.57665246610975
aF143.07207779736933
aa(lp52
F226.30270659807121
aF144.2873148225211
aa(lp53
F226.02876073003262
aF145.50255184767281
aa(lp54
F225.75481486199402
aF146.71778887282454
aa(lp55
F225.48086899395548
aF147.93302589797628
aa(lp56
F225.20692312591683
aF149.14826292312802
aa(lp57
F224.93297725787829
aF150.36349994827975
aa(lp58
F224.6590313898397
aF151.57873697343149
aa(lp59
F224.38508552180116
aF152.79397399858323
aa(lp60
F224.11113965376256
aF154.00921102373496
aa(lp61
F223.83719378572397
aF155.22444804888667
aa(lp62
F223.56324791768543
aF156.43968507403844
aa(lp63
F223.28930204964678
aF157.65492209919017
aa(lp64
F223.01535618160824
aF158.87015912434191
aa(lp65
F222.74141031356965
aF160.08539614949365
aa(lp66
F222.46746444553111
aF161.30063317464538
aa(lp67
F222.19351857749251
aF162.51587019979706
aa(lp68
F221.91957270945392
aF163.73110722494886
aa(lp69
F221.64562684141538
aF164.94634425010059
aa(lp70
F221.37168097337678
aF166.16158127525233
aa(lp71
F221.09773510533819
aF167.37681830040407
aa(lp72
F220.82378923729965
aF168.59205532555575
aa(lp73
F220.54984336926105
aF169.80729235070748
aa(lp74
F220.27589750122252
aF171.02252937585922
aa(lp75
F220.00195163318392
aF172.23776640101102
aa(lp76
F219.72800576514533
aF173.45300342616275
aa(lp77
F219.45405989710679
aF174.66824045131443
aa(lp78
F219.18011402906819
aF175.88347747646617
aa(lp79
F218.9061681610296
aF177.09871450161791
aa(lp80
F218.63222229299106
aF178.31395152676964
aa(lp81
F218.35266791122166
aF179.5222454426717
aa(lp82
F217.5648749046012
aF180.1013608512892
aa(lp83
F216.77708189798068
aF180.68047625990658
aa(lp84
F216.3649991032658
aF181.72470545315139
aa(lp85
F216.09105323522721
aF182.93994247830312
aa(lp86
F215.81710736718867
aF184.15517950345486
aa(lp87
F215.54316149915007
aF185.3704165286066
aa(lp88
F215.26921563111148
aF186.58565355375833
aa(lp89
F214.53532276239503
aF187.23149511550662
aa(lp90
F213.74752975577456
aF187.81061052412406
aa(lp91
F213.27593830942482
aF188.78117045498834
aa(lp92
F213.00199244138622
aF189.99640748014008
aa(lp93
F212.72804657334768
aF191.21164450529182
aa(lp94
F212.45410070530909
aF192.4268815304435
aa(lp95
F212.18015483727055
aF193.64211855559529
aa(lp96
F211.90620896923195
aF194.85735558074703
aa(lp97
F211.63226310119336
aF196.07259260589876
aa(lp98
F211.35831723315482
aF197.2878296310505
aa(lp99
F210.79905753641879
aF198.1498598748401
aa(lp100
F210.01126452979832
aF198.72897528345754
aa(lp101
F209.36503991146816
aF199.48334653228045
aa(lp102
F209.09109404342956
aF200.69858355743219
aa(lp103
F208.81714817539097
aF201.91382058258398
aa(lp104
F208.54320230735243
aF203.12905760773566
aa(lp105
F208.26925643931384
aF204.3442946328874
aa(lp106
F207.99531057127524
aF205.55953165803913
aa(lp107
F207.7213647032367
aF206.77476868319087
aa(lp108
F207.44741883519811
aF207.99000570834261
aa(lp109
F207.17347296715951
aF209.20524273349434
aa(lp110
F206.89952709912097
aF210.42047975864608
aa(lp111
F206.62558123108238
aF211.63571678379782
aa(lp112
F206.35163536304384
aF212.85095380894955
aa(lp113
F206.07768949500525
aF214.06619083410129
aa(lp114
F205.80374362696665
aF215.28142785925297
aa(lp115
F205.52979775892811
aF216.49666488440477
aa(lp116
F205.25585189088952
aF217.7119019095565
aa(lp117
F204.98190602285098
aF218.92713893470824
aa(lp118
F204.70796015481238
aF220.14237595985998
aa(lp119
F204.43401428677379
aF221.35761298501171
aa(lp120
F204.16006841873525
aF222.57285001016339
aa(lp121
F203.8861225506966
aF223.78808703531519
aa(lp122
F203.61217668265806
aF225.00332406046692
aa(lp123
F203.33823081461946
aF226.21856108561866
aa(lp124
F203.06428494658087
aF227.4337981107704
aa(lp125
F202.79033907854233
aF228.64903513592208
aa(lp126
F202.51639321050374
aF229.86427216107387
aa(lp127
F202.24244734246514
aF231.07950918622555
aa(lp128
F201.96850147442655
aF232.29474621137734
aa(lp129
F201.69455560638801
aF233.50998323652908
aa(lp130
F201.42060973834941
aF234.72522026168076
aa(lp131
F201.14666387031082
aF235.9404572868325
aa(lp132
F200.87271800227228
aF237.15569431198423
aa(lp133
F200.59877213423368
aF238.37093133713603
aa(lp134
F200.32482626619509
aF239.58616836228776
aa(lp135
F199.85006712813004
aF240
aa(lp136
F199.10143220161973
aF239.32084842838458
aa(lp137
F198.35279727510942
aF238.64169685676904
aa(lp138
F197.60416234859917
aF237.96254528515362
aa(lp139
F196.85552742208893
aF237.28339371353809
aa(lp140
F196.10689249557868
aF236.60424214192267
aa(lp141
F195.35825756906837
aF235.92509057030713
aa(lp142
F194.57921623197586
aF236.22298849436106
aa(lp143
F193.7914232253554
aF236.80210390297844
aa(lp144
F192.97761552532722
aF236.89669916875425
aa(lp145
F192.13745383906047
aF236.50045500864849
aa(lp146
F191.34362473404633
aF236.96714890185115
aa(lp147
F190.55583172742581
aF237.54626431046859
aa(lp148
F189.73635594171009
aF237.5352922476614
aa(lp149
F188.89619425544339
aF237.13904808755564
aa(lp150
F188.05603256917664
aF236.74280392744987
aa(lp151
F187.23582075804848
aF236.71812349097917
aa(lp152
F186.44802775142801
aF237.29723889959661
aa(lp153
F185.66023474480755
aF237.87635430821393
aa(lp154
F184.87244173818704
aF238.45546971683137
aa(lp155
F184.08464873156663
aF239.03458512544881
aa(lp156
F183.25383677447587
aF238.81247840547582
aa(lp157
F182.41367508820912
aF238.41623424537005
aa(lp158
F181.57351340194242
aF238.01999008526428
aa(lp159
F180.73335171567567
aF237.62374592515852
aa(lp160
F179.89319002940891
aF237.22750176505269
aa(lp161
F179.10463227750057
aF237.79237389621466
aa(lp162
F178.31683927088011
aF238.37148930483198
aa(lp163
F177.5290462642597
aF238.95060471344942
aa(lp164
F176.74125325763924
aF239.52972012206686
aa(lp165
F175.9311559209749
aF239.6934204031844
aa(lp166
F175.09099423470815
aF239.29717624307864
aa(lp167
F174.25083254844145
aF238.90093208297287
aa(lp168
F173.4106708621747
aF238.50468792286711
aa(lp169
F172.57050917590794
aF238.10844376276134
aa(lp170
F171.7303474896413
aF237.71219960265557
aa(lp171
F170.89018580337449
aF237.31595544254981
aa(lp172
F170.0500241171078
aF236.91971128244398
aa(lp173
F169.20986243084104
aF236.52346712233822
aa(lp174
F168.36970074457429
aF236.12722296223245
aa(lp175
F167.52953905830759
aF235.73097880212669
aa(lp176
F166.69680087805932
aF235.47299643661898
aa(lp177
F165.90900787143892
aF236.05211184523642
aa(lp178
F165.12121486481846
aF236.63122725385381
aa(lp179
F164.28827947469051
aF236.36957188103395
aa(lp180
F163.46120938012979
aF236.21715684410901
aa(lp181
F162.67341637350933
aF236.79627225272645
aa(lp182
F161.88562336688886
aF237.37538766134389
aa(lp183
F161.04701989107338
aF237.0081649599411
aa(lp184
F160.20685820480662
aF236.61192079983533
aa(lp185
F159.36669651853992
aF236.21567663972957
aa(lp186
F158.52653483227317
aF235.8194324796238
aa(lp187
F157.68637314600642
aF235.42318831951803
aa(lp188
F156.84621145973972
aF235.02694415941227
aa(lp189
F156.00604977347297
aF234.6306999993065
aa(lp190
F155.16588808720627
aF234.23445583920073
aa(lp191
F154.32572640093946
aF233.83821167909497
aa(lp192
F153.48556471467276
aF233.4419675189892
aa(lp193
F152.64540302840607
aF233.04572335888338
aa(lp194
F151.80524134213931
aF232.64947919877761
aa(lp195
F150.96895850924079
aF232.32547815753389
aa(lp196
F150.18116550262033
aF232.90459356615128
aa(lp197
F149.39337249599987
aF233.48370897476872
aa(lp198
F148.56398175852217
aF233.28807227768482
aa(lp199
F147.72382007225548
aF232.89182811757905
aa(lp200
F146.88365838598872
aF232.49558395747329
aa(lp201
F146.07336152662253
aF232.65556815527924
aa(lp202
F145.28556852000202
aF233.23468356389662
aa(lp203
F144.48256048863834
aF233.53042119648626
aa(lp204
F143.64239880237164
aF233.13417703638049
aa(lp205
F142.80223711610489
aF232.73793287627473
aa(lp206
F141.96207542983814
aF232.34168871616896
aa(lp207
F141.12191374357144
aF231.94544455606319
aa(lp208
F140.28175205730469
aF231.54920039595743
aa(lp209
F139.44159037103799
aF231.1529562358516
aa(lp210
F138.60142868477124
aF230.75671207574584
aa(lp211
F137.76126699850454
aF230.36046791564007
aa(lp212
F136.92110531223773
aF229.96422375553431
aa(lp213
F136.08094362597103
aF229.56797959542848
aa(lp214
F135.24078193970428
aF229.17173543532272
aa(lp215
F134.40062025343758
aF228.77549127521695
aa(lp216
F133.56045856717088
aF228.37924711511118
aa(lp217
F132.72029688090413
aF227.98300295500542
aa(lp218
F131.88013519463738
aF227.58675879489965
aa(lp219
F131.04889269297661
aF227.35663324059726
aa(lp220
F130.26109968635609
aF227.93574864921464
aa(lp221
F129.47330667973569
aF228.51486405783203
aa(lp222
F128.6388756110203
aF228.22535187380686
aa(lp223
F127.813301195047
aF228.10079364808729
aa(lp224
F127.02550818842654
aF228.67990905670479
aa(lp225
F126.23771518180608
aF229.25902446532211
aa(lp226
F125.39761602740312
aF228.86394495271406
aa(lp227
F124.55745434113642
aF228.4677007926083
aa(lp228
F123.71729265486969
aF228.07145663250253
aa(lp229
F122.87713096860297
aF227.67521247239677
aa(lp230
F122.03696928233624
aF227.278968312291
aa(lp231
F121.19680759606946
aF226.88272415218518
aa(lp232
F120.35664590980274
aF226.48647999207941
aa(lp233
F119.51648422353601
aF226.09023583197364
aa(lp234
F118.67632253726929
aF225.69399167186788
aa(lp235
F117.83616085100256
aF225.29774751176211
aa(lp236
F116.99599916473584
aF224.90150335165634
aa(lp237
F116.15583747846908
aF224.50525919155058
aa(lp238
F115.31567579220236
aF224.10901503144481
aa(lp239
F114.47551410593563
aF223.71277087133905
aa(lp240
F113.63535241966891
aF223.31652671123328
aa(lp241
F112.79519073340218
aF222.92028255112751
aa(lp242
F111.95502904713545
aF222.52403839102169
aa(lp243
F111.1148673608687
aF222.12779423091592
aa(lp244
F110.27470567460198
aF221.73155007081016
aa(lp245
F109.43454398833525
aF221.33530591070439
aa(lp246
F108.59438230206852
aF220.93906175059863
aa(lp247
F107.7542206158018
aF220.54281759049286
aa(lp248
F106.91405892953507
aF220.14657343038709
aa(lp249
F106.07389724326832
aF219.75032927028133
aa(lp250
F105.23373555700159
aF219.35408511017556
aa(lp251
F104.39357387073487
aF218.95784095006979
aa(lp252
F103.55341218446814
aF218.56159678996403
aa(lp253
F102.71325049820142
aF218.16535262985826
aa(lp254
F101.87308881193469
aF217.7691084697525
aa(lp255
F101.03292712566791
aF217.37286430964667
aa(lp256
F100.19276543940119
aF216.97662014954085
aa(lp257
F99.35260375313446
aF216.58037598943508
aa(lp258
F98.512442066867735
aF216.18413182932932
aa(lp259
F97.672280380601009
aF215.78788766922355
aa(lp260
F96.832118694334284
aF215.39164350911778
aa(lp261
F95.99195700806753
aF214.99539934901202
aa(lp262
F95.151795321800805
aF214.59915518890625
aa(lp263
F94.311633635534079
aF214.20291102880049
aa(lp264
F93.471471949267354
aF213.80666686869472
aa(lp265
F92.631310263000628
aF213.41042270858895
aa(lp266
F91.791148576733903
aF213.01417854848319
aa(lp267
F90.950986890467149
aF212.61793438837736
aa(lp268
F90.110825204200424
aF212.2216902282716
aa(lp269
F89.270663517933698
aF211.82544606816583
aa(lp270
F88.430501831666973
aF211.42920190806007
aa(lp271
F87.590340145400248
aF211.0329577479543
aa(lp272
F86.750178459133494
aF210.63671358784853
aa(lp273
F85.910016772866769
aF210.24046942774277
aa(lp274
F85.069855086600043
aF209.844225267637
aa(lp275
F84.229693400333318
aF209.44798110753123
aa(lp276
F83.389531714066592
aF209.05173694742547
aa(lp277
F82.549370027799867
aF208.6554927873197
aa(lp278
F81.709208341533113
aF208.25924862721394
aa(lp279
F80.869046655266388
aF207.86300446710817
aa(lp280
F80.028884968999634
aF207.4667603070024
aa(lp281
F79.188723282732909
aF207.07051614689658
aa(lp282
F78.348561596466212
aF206.67427198679081
aa(lp283
F77.508399910199486
aF206.27802782668505
aa(lp284
F76.668238223932732
aF205.88178366657928
aa(lp285
F75.828076537666007
aF205.48553950647351
aa(lp286
F74.987914851399253
aF205.08929534636775
aa(lp287
F74.147753165132528
aF204.69305118626198
aa(lp288
F73.307591478865803
aF204.29680702615622
aa(lp289
F72.467429792599077
aF203.90056286605045
aa(lp290
F71.627268106332352
aF203.50431870594468
aa(lp291
F70.787106420065626
aF203.10807454583886
aa(lp292
F69.946944733798873
aF202.71183038573309
aa(lp293
F69.106783047532147
aF202.31558622562733
aa(lp294
F68.266621361265422
aF201.91934206552156
aa(lp295
F67.426459674998696
aF201.5230979054158
aa(lp296
F66.586297988731943
aF201.12685374531003
aa(lp297
F65.746136302465217
aF200.73060958520426
aa(lp298
F64.905974616198492
aF200.3343654250985
aa(lp299
F64.065812929931766
aF199.93812126499273
aa(lp300
F63.225651243665041
aF199.54187710488696
aa(lp301
F62.385489557398316
aF199.1456329447812
aa(lp302
F61.545327871131562
aF198.74938878467543
aa(lp303
F60.705166184864837
aF198.35314462456961
aa(lp304
F59.865004498598111
aF197.95690046446384
aa(lp305
F59.024842812331386
aF197.56065630435808
aa(lp306
F58.18468112606466
aF197.16441214425225
aa(lp307
F57.344519439797935
aF196.76816798414649
aa(lp308
F56.504357753531181
aF196.37192382404072
aa(lp309
F55.664196067264456
aF195.97567966393495
aa(lp310
F54.824034380997702
aF195.57943550382919
aa(lp311
F53.983872694730977
aF195.18319134372342
aa(lp312
F53.143711008464251
aF194.78694718361766
aa(lp313
F52.303549322197526
aF194.39070302351189
aa(lp314
F51.4633876359308
aF193.99445886340612
aa(lp315
F50.623225949664075
aF193.59821470330036
aa(lp316
F49.78306426339735
aF193.20197054319459
aa(lp317
F48.942902577130596
aF192.80572638308877
aa(lp318
F48.102740890863871
aF192.409482222983
aa(lp319
F47.262579204597145
aF192.01323806287724
aa(lp320
F46.422417518330391
aF191.61699390277147
aa(lp321
F45.582255832063694
aF191.2207497426657
aa(lp322
F44.742094145796969
aF190.82450558255994
aa(lp323
F43.901932459530215
aF190.42826142245417
aa(lp324
F43.06177077326349
aF190.0320172623484
aa(lp325
F42.221609086996764
aF189.63577310224264
aa(lp326
F41.381447400730011
aF189.23952894213687
aa(lp327
F40.541285714463285
aF188.84328478203111
aa(lp328
F39.70112402819656
aF188.44704062192534
aa(lp329
F38.860962341929834
aF188.05079646181957
aa(lp330
F38.020800655663109
aF187.65455230171375
aa(lp331
F37.180638969396384
aF187.25830814160798
aa(lp332
F36.34047728312963
aF186.86206398150222
aa(lp333
F35.500315596862904
aF186.46581982139645
aa(lp334
F34.660153910596179
aF186.06957566129068
aa(lp335
F33.819992224329425
aF185.67333150118492
aa(lp336
F32.9798305380627
aF185.27708734107915
aa(lp337
F32.139668851795989
aF184.88084318097339
aa(lp338
F31.299507165529249
aF184.48459902086762
aa(lp339
F30.459345479262524
aF184.08835486076185
aa(lp340
F29.619183792995798
aF183.69211070065609
aa(lp341
F28.779022106729045
aF183.29586654055026
aa(lp342
F27.938860420462319
aF182.8996223804445
aa(lp343
F27.098698734195608
aF182.50337822033873
aa(lp344
F26.258537047928854
aF182.10713406023297
aa(lp345
F25.418375361662129
aF181.7108899001272
aa(lp346
F24.578213675395403
aF181.31464574002143
aa(lp347
F23.738051989128664
aF180.91840157991567
aa(lp348
F22.897890302861938
aF180.5221574198099
aa(lp349
F22.057728616595213
aF180.12591325970413
aa(lp350
F21.217566930328474
aF179.72966909959831
aa(lp351
F20.377405244061748
aF179.33342493949255
aa(lp352
F19.537243557795023
aF178.93718077938678
aa(lp353
F18.697081871528283
aF178.54093661928101
aa(lp354
F17.856920185261558
aF178.14469245917525
aa(lp355
F17.016758498994832
aF177.74844829906942
aa(lp356
F16.176596812728079
aF177.35220413896366
aa(lp357
F15.336435126461353
aF176.95595997885789
aa(lp358
F14.496273440194628
aF176.55971581875212
aa(lp359
F13.656111753927888
aF176.16347165864636
aa(lp360
F12.815950067661163
aF175.76722749854059
aa(lp361
F11.975788381394437
aF175.37098333843483
aa(lp362
F11.135626695127698
aF174.97473917832906
aa(lp363
F10.295465008860972
aF174.57849501822329
aa(lp364
F9.4553033225942471
aF174.18225085811753
aa(lp365
F8.6151416363275075
aF173.78600669801176
aa(lp366
F7.7749799500607821
aF173.38976253790594
aa(lp367
F6.9348182637940567
aF172.99351837780017
aa(lp368
F6.0946565775273314
aF172.59727421769441
aa(lp369
F5.2544948912605776
aF172.20103005758864
aa(lp370
F4.4143332049938664
aF171.80478589748287
aa(lp371
F3.574171518727141
aF171.40854173737711
aa(lp372
F2.7340098324603872
aF171.01229757727134
aa(lp373
F1.8938481461936618
aF170.61605341716557
aa(lp374
F37.072851675182577
aF0
aa(lp375
F37.060527386466461
aF1.1858485753027708
aa(lp376
F37.4609024311507
aF2.3253378491528878
aa(lp377
F37.788292845708284
aF3.4730256253887148
aa(lp378
F37.514346977669717
aF4.6882626505404374
aa(lp379
F37.240401109631151
aF5.9034996756921601
aa(lp380
F36.966455241592584
aF7.1187367008439111
aa(lp381
F36.692509373553989
aF8.3339737259956763
aa(lp382
F36.418563505515422
aF9.5492107511473989
aa(lp383
F36.144617637476827
aF10.764447776299122
aa(lp384
F36.315821804131943
aF11.929680250971003
aa(lp385
F36.716196848816182
aF13.069169524821135
aa(lp386
F36.860058808002535
aF14.237473401687865
aa(lp387
F36.586112939963968
aF15.452710426839602
aa(lp388
F36.312167071925401
aF16.667947451991324
aa(lp389
F36.038221203886835
aF17.883184477143047
aa(lp390
F35.764275335848239
aF19.098421502294798
aa(lp391
F35.490329467809673
aF20.31365852744652
aa(lp392
F35.216383599771106
aF21.528895552598286
aa(lp393
F34.942437731732539
aF22.744132577750008
aa(lp394
F34.668491863693944
aF23.959369602901731
aa(lp395
F34.394545995655349
aF25.174606628053454
aa(lp396
F34.120600127616783
aF26.389843653205219
aa(lp397
F33.846654259578216
aF27.605080678356941
aa(lp398
F33.572708391539621
aF28.820317703508692
aa(lp399
F33.298762523501054
aF30.035554728660429
aa(lp400
F33.024816655462459
aF31.250791753812138
aa(lp401
F32.750870787423892
aF32.466028778963874
aa(lp402
F32.476924919385326
aF33.681265804115611
aa(lp403
F32.202979051346745
aF34.896502829267348
aa(lp404
F31.929033183308178
aF36.111739854419113
aa(lp405
F31.655087315269611
aF37.326976879570822
aa(lp406
F31.38114144723103
aF38.542213904722558
aa(lp407
F31.107195579192435
aF39.757450929874267
aa(lp408
F30.833249711153869
aF40.972687955026032
aa(lp409
F30.559303843115288
aF42.187924980177769
aa(lp410
F30.285357975076721
aF43.403162005329506
aa(lp411
F30.011412107038126
aF44.618399030481243
aa(lp412
F29.737466238999545
aF45.833636055632951
aa(lp413
F29.463520370960978
aF47.048873080784688
aa(lp414
F29.189574502922397
aF48.264110105936453
aa(lp415
F28.915628634883831
aF49.479347131088161
aa(lp416
F28.64168276684525
aF50.694584156239927
aa(lp417
F28.367736898806683
aF51.909821181391663
aa(lp418
F28.093791030768102
aF53.125058206543372
aa(lp419
F27.819845162729507
aF54.340295231695109
aa(lp420
F27.54589929469094
aF55.555532256846845
aa(lp421
F27.27195342665236
aF56.770769281998582
aa(lp422
F26.998007558613793
aF57.986006307150348
aa(lp423
F26.724061690575198
aF59.201243332302056
aa(lp424
F26.450115822536617
aF60.416480357453793
aa(lp425
F26.17616995449805
aF61.631717382605501
aa(lp426
F25.902224086459483
aF62.846954407757266
aa(lp427
F25.628278218420903
aF64.062191432909003
aa(lp428
F25.354332350382336
aF65.27742845806074
aa(lp429
F25.080386482343755
aF66.492665483212477
aa(lp430
F24.806440614305188
aF67.707902508364185
aa(lp431
F24.532494746266607
aF68.923139533515922
aa(lp432
F24.258548878228012
aF70.138376558667687
aa(lp433
F23.984603010189446
aF71.353613583819396
aa(lp434
F23.710657142150865
aF72.568850608971161
aa(lp435
F23.43671127411227
aF73.784087634122898
aa(lp436
F23.162765406073703
aF74.999324659274606
aa(lp437
F22.888819538035122
aF76.214561684426343
aa(lp438
F22.614873669996555
aF77.42979870957808
aa(lp439
F22.340927801957974
aF78.645035734729817
aa(lp440
F22.066981933919408
aF79.860272759881582
aa(lp441
F21.793036065880827
aF81.07550978503329
aa(lp442
F21.51909019784226
aF82.290746810185027
aa(lp443
F21.245144329803679
aF83.505983835336735
aa(lp444
F20.971198461765084
aF84.721220860488501
aa(lp445
F20.697252593726517
aF85.936457885640237
aa(lp446
F20.423306725687937
aF87.151694910791974
aa(lp447
F20.14936085764937
aF88.366931935943711
aa(lp448
F19.875414989610775
aF89.582168961095419
aa(lp449
F19.601469121572208
aF90.797405986247156
aa(lp450
F19.327523253533627
aF92.012643011398922
aa(lp451
F19.053577385495061
aF93.22788003655063
aa(lp452
F18.77963151745648
aF94.443117061702395
aa(lp453
F18.505685649417913
aF95.658354086854132
aa(lp454
F18.231739781379332
aF96.87359111200584
aa(lp455
F17.957793913340737
aF98.088828137157577
aa(lp456
F17.68384804530217
aF99.304065162309314
aa(lp457
F17.409902177263589
aF100.51930218746105
aa(lp458
F17.135956309225023
aF101.73453921261282
aa(lp459
F16.862010441186442
aF102.94977623776452
aa(lp460
F16.588064573147875
aF104.16501326291626
aa(lp461
F16.31411870510928
aF105.38025028806797
aa(lp462
F16.040172837070699
aF106.59548731321973
aa(lp463
F15.766226969032132
aF107.81072433837147
aa(lp464
F15.492281100993551
aF109.02596136352321
aa(lp465
F15.218335232954985
aF110.24119838867495
aa(lp466
F14.944389364916404
aF111.45643541382665
aa(lp467
F14.670443496877837
aF112.67167243897839
aa(lp468
F14.396497628839242
aF113.88690946413016
aa(lp469
F14.122551760800661
aF115.10214648928186
aa(lp470
F13.848605892762095
aF116.31738351443363
aa(lp471
F13.574660024723514
aF117.53262053958534
aa(lp472
F13.300714156684947
aF118.74785756473707
aa(lp473
F13.026768288646366
aF119.96309458988881
aa(lp474
F12.752822420607785
aF121.17833161504055
aa(lp475
F12.478876552569204
aF122.39356864019229
aa(lp476
F12.204930684530638
aF123.60880566534405
aa(lp477
F11.930984816492057
aF124.82404269049576
aa(lp478
F11.402612851329337
aF125.72431067517022
aa(lp479
F10.614819844708862
aF126.3034260837876
aa(lp480
F9.9377074948053945
aF127.01955959172574
aa(lp481
F9.6637616267668278
aF128.23479661687747
aa(lp482
F9.3898157587282469
aF129.45003364202921
aa(lp483
F9.1158698906896802
aF130.66527066718095
aa(lp484
F8.8419240226510993
aF131.88050769233271
aa(lp485
F8.3730607091231377
aF132.85444493938772
aa(lp486
F7.5852677025026622
aF133.4335603480051
aa(lp487
F6.848646700964423
aF134.07602459356275
aa(lp488
F6.5747008329258563
aF135.29126161871446
aa(lp489
F6.3007549648872754
aF136.50649864386622
aa(lp490
F6.0268090968487087
aF137.72173566901793
aa(lp491
F5.7528632288101278
aF138.9369726941697
aa(lp492
F5.4789173607715327
aF140.15220971932143
aa(lp493
F5.204971492732966
aF141.36744674447314
aa(lp494
F4.9310256246943851
aF142.58268376962488
aa(lp495
F4.6570797566558184
aF143.79792079477664
aa(lp496
F4.3831338886172375
aF145.01315781992835
aa(lp497
F4.1091880205786708
aF146.22839484508012
aa(lp498
F3.8352421525400899
aF147.44363187023183
aa(lp499
F3.5612962845014948
aF148.65886889538356
aa(lp500
F3.2873504164629281
aF149.8741059205353
aa(lp501
F3.0134045484243615
aF151.08934294568704
aa(lp502
F2.7394586803857806
aF152.30457997083877
aa(lp503
F2.4655128123472139
aF153.51981699599051
aa(lp504
F2.1915669443086188
aF154.73505402114225
aa(lp505
F1.9176210762700379
aF155.95029104629398
aa(lp506
F1.6436752082314712
aF157.16552807144569
aa(lp507
F1.3697293401928903
aF158.38076509659743
aa(lp508
F1.0957834721543236
aF159.59600212174917
aa(lp509
F0.82183760411574269
aF160.81123914690096
aa(lp510
F0.54789173607717601
aF162.02647617205264
aa(lp511
F0.2739458680385809
aF163.24171319720438
aa(lp512
F0
aF164.45695022235611
aa.