(lp1
I0
aI10
aI13
aI12
aI12
aI11
aI10
aI6
aI2
aI11
aI14
aI9
aI0
aI10
aI7
aI3
a.(lp1
I0
aI0
aI0
aI10
aI5
aI0
aI0
aI12
aI0
aI0
aI0
aI10
aI13
aI6
aI3
aI7
aI0
aI0
aI6
aI11
aI0
aI9
aI6
aI1
aI14
aI7
aI0
aI10
aI0
aI10
aI5
aI0
aI0
aI3
aI9
aI14
aI0
aI6
aI9
aI0
aI0
aI0
aI0
aI11
aI9
aI5
aI10
aI4
aI0
aI0
aI0
aI10
aI6
aI3
aI9
aI5
aI0
aI0
aI0
aI10
aI5
aI0
aI0
aI0
a.(lp1
(lp2
F0
aF108.57652693483567
aa(lp3
F2.6457431834503353
aF108.57881103741531
aa(lp4
F5.2914863669006635
aF108.58109513999494
aa(lp5
F7.9372295503509989
aF108.58337924257455
aa(lp6
F10.241627122834807
aF109.36785089067274
aa(lp7
F12.110752817154264
aF111.14974049604464
aa(lp8
F14.440732569066519
aF111.87559102380817
aa(lp9
F16.564964108584967
aF113.07291001074267
aa(lp10
F18.639838015298274
aF114.3833311569436
aa(lp11
F20.969817767210557
aF115.10918168470712
aa(lp12
F23.198701541891054
aF116.06669189038126
aa(lp13
F25.84444472534139
aF116.0689759929609
aa(lp14
F27.959757022947414
aF117.28673326799762
aa(lp15
F30.289736774859712
aF118.01258379576112
aa(lp16
F32.478182158647499
aF119.06275787259952
aa(lp17
F34.488842221091446
aF120.52032392889657
aa(lp18
F36.81882197300375
aF121.24617445666007
aa(lp19
F39.111919591953622
aF122.05653975223814
aa(lp20
F41.105916716881495
aF123.55228864076759
aa(lp21
F43.347907171147767
aF124.47976511755903
aa(lp22
F45.217032865467218
aF126.26165472293096
aa(lp23
F47.739654150187576
aF126.54607052040623
aa(lp24
F49.876992369291784
aF127.71335577845792
aa(lp25
F52.206972121204075
aF128.43920630622145
aa(lp26
F54.076097815523511
aF130.22109591159335
aa(lp27
F56.367388708421544
aF131.03560128857427
aa(lp28
F58.361385833349431
aF132.53135017710377
aa(lp29
F60.605183013667528
aF133.45468657249231
aa(lp30
F62.935162765579818
aF134.18053710025583
aa(lp31
F64.804288459899269
aF135.96242670562773
aa(lp32
F66.989120391583398
aF137.02088094527187
aa(lp33
F69.003393906130995
aF138.47016683876319
aa(lp34
F71.333373658043286
aF139.19601736652669
aa(lp35
F73.622857824889493
aF140.01466282491049
aa(lp36
F75.532479104275012
aF141.70375749966212
aa(lp37
F77.610852074745239
aF143.00616060196944
aa(lp38
F79.731584550506753
aF144.21149763279757
aa(lp39
F81.600710244826189
aF145.99338723816948
aa(lp40
F83.930689996738479
aF146.719237765933
aa(lp41
F86.238586632979192
aF147.49569137013754
aa(lp42
F88.232583757907065
aF148.99144025866698
aa(lp43
F90.459775194882468
aF149.9528284268319
aa(lp44
F92.789754946794773
aF150.67867895459543
aa(lp45
F94.866321191213132
aF151.98522213830557
aa(lp46
F96.988860393026513
aF153.18641908773083
aa(lp47
F99.31884014493879
aF153.91226961549432
aa(lp48
F101.50005862451921
aF154.97900401794425
aa(lp49
F103.51794559117052
aF156.42000974862981
aa(lp50
F106.13979893289742
aF156.47703700905333
aa(lp51
F108.63875915258792
aF156.81567172654832
aa(lp52
F110.77953924127566
aF157.97507000016248
aa(lp53
F112.83786459881968
aF159.32341185968374
aa(lp54
F115.16784435073193
aF160.0492623874473
aa(lp55
F117.41327667458178
aF160.96885187980104
aa(lp56
F119.40727379950964
aF162.46460076833057
aa(lp57
F122.05301698295999
aF162.46688487091018
aa(lp58
F124.04701410788788
aF163.96263375943971
aa(lp59
F126.6927572913382
aF163.96491786201932
aa(lp60
F129.14772286220568
aF164.40436555402829
aa(lp61
F131.33249759971642
aF165.46295085312846
aa(lp62
F133.80768236603024
aF165.85606660955528
aa(lp63
F135.67680806034969
aF167.63795621492721
aa(lp64
F137.96623503302249
aF168.45673273276708
aa(lp65
F139.96023215795037
aF169.9524816212965
aa(lp66
F142.60597534140067
aF169.95476572387622
aa(lp67
F144.59997246632861
aF171.45051461240564
aa(lp68
F146.8658527623183
aF172.32324793135314
aa(lp69
F148.73497845663769
aF174.10513753672507
aa(lp70
F151.23370989963468
aF174.44429649204432
aa(lp71
F153.85579201805513
aF174.50079951464357
aa(lp72
F155.72491771237458
aF176.28268912001556
aa(lp73
F157.86744733294074
aF177.43807837168282
aa(lp74
F159.9240231586063
aF178.79042925315099
aa(lp75
F162.50718764131898
aF178.93611136279196
aa(lp76
F164.58398266243091
aF180.24213030867799
aa(lp77
F167.14692794969716
aF180.4341443539011
aa(lp78
F169.24394216625547
aF181.69383136420498
aa(lp79
F171.11306786057492
aF183.47572096957697
aa(lp80
F173.12891932448082
aF184.92139101948953
aa(lp81
F175.31217330680659
aF185.9834611027124
aa(lp82
F177.76865963285906
aF186.41942401059868
aa(lp83
F179.97213281063119
aF187.43516215823939
aa(lp84
F182.40839994123723
aF187.91745700170782
aa(lp85
F184.63209231445575
aF188.88686321376633
aa(lp86
F187.04814024961547
aF189.41548999281696
aa(lp87
F189.69388343306582
aF189.41777409539657
aa(lp88
F192.0828856277854
aF190.0083757194484
aa(lp89
F194.333623741444
aF190.91580708650571
aa(lp90
F196.28199107401718
aF192.51611585258382
aa(lp91
F198.32161799129972
aF193.90730486356466
aa(lp92
F200.48109652024885
aF195.02385598571925
aa(lp93
F202.35022221456836
aF196.80574559109124
aa(lp94
F204.68020196648064
aF197.53159611885474
aa(lp95
F206.94935254953367
aF198.39683563173276
aa(lp96
F209.34016147030519
aF198.98329717438168
aa(lp97
F211.2092871646247
aF200.76518677975366
aa(lp98
F213.53926691653692
aF201.49103730751716
aa(lp99
F215.57708710776768
aF202.88636639990085
aa(lp100
F217.7383723627687
aF203.99877744065259
aa(lp101
F220.06835211468092
aF204.72462796841609
aa(lp102
F222.21082454107375
aF205.88014827953947
aa(lp103
F224.2674575609127
aF207.23236810155151
aa(lp104
F226.59743731282498
aF207.95821862931501
aa(lp105
F227.55798151133263
aF207.64739715471188
aa(lp106
F226.99910932706894
aF205.35037556887937
aa(lp107
F225.12998363274943
aF203.56848596350738
aa(lp108
F224.42397140535991
aF201.3293131384213
aa(lp109
F223.61290379828012
aF199.13144330194211
aa(lp110
F221.74377810396066
aF197.34955369657013
aa(lp111
F220.98523818672595
aF195.13103236578746
aa(lp112
F219.1161124924065
aF193.34914276041553
aa(lp113
F218.15355091665072
aF191.21083344982918
aa(lp114
F217.59903265793719
aF188.9121000988502
aa(lp115
F216.58774600204623
aF186.79294726968936
aa(lp116
F216.08195282346782
aF184.47505743728487
aa(lp117
F215.02194108744175
aF182.37506108954955
aa(lp118
F213.45428721191365
aF180.47464650113028
aa(lp119
F212.69574729467899
aF178.25612517034762
aa(lp120
F211.88793098146897
aF176.05697707325896
aa(lp121
F210.31972579010073
aF174.1567792371082
aa(lp122
F209.30954176589017
aF172.0371929034103
aa(lp123
F208.75392087549625
aF169.73889305696838
aa(lp124
F207.79246193142086
aF167.60015024184497
aa(lp125
F205.92333623710141
aF165.8182606364731
aa(lp126
F205.61991076952353
aF163.4208090406778
aa(lp127
F204.40625640263204
aF161.38121797490777
aa(lp128
F203.64771648539738
aF159.16269664412505
aa(lp129
F202.48590066355081
aF157.10272502438721
aa(lp130
F202.48830094031456
aF154.58503668039822
aa(lp131
F202.49070121707825
aF152.0673483364092
aa(lp132
F201.72414259354349
aF149.85197959558369
aa(lp133
F199.85501689922404
aF148.07008999021178
aa(lp134
F199.35669111110553
aF145.74926432011864
aa(lp135
F199.35909138786928
aF143.23157597612962
aa(lp136
F198.68998292460475
aF140.97789427245303
aa(lp137
F196.82085723028536
aF139.19600466708107
aa(lp138
F196.22508128189651
aF136.91349195983904
aa(lp139
F196.22748155866032
aF134.39580361585004
aa(lp140
F196.22988183542401
aF131.87811527186105
aa(lp141
F194.89728333843141
aF129.88528761853973
aa(lp142
F194.13874342119675
aF127.66676628775707
aa(lp143
F193.09587172945129
aF125.56003125557046
aa(lp144
F193.09827200621504
aF123.04234291158144
aa(lp145
F191.86312366949278
aF121.01120229540908
aa(lp146
F191.10458375225801
aF118.79268096462641
aa(lp147
F189.23545805793862
aF117.01079135925445
aa(lp148
F188.39605670887403
aF114.82406105914009
aa(lp149
F188.39845698563784
aF112.30637271515107
aa(lp150
F186.95983830623459
aF110.35522736690646
aa(lp151
F185.26204660290136
aF108.50597704284951
aa(lp152
F184.33217269468042
aF106.3548164307519
aa(lp153
F183.69624168829682
aF104.08809086270972
aa(lp154
F182.81509286021111
aF101.91777376918657
aa(lp155
F182.05655294297645
aF99.699252438403903
aa(lp156
F180.56223158232416
aF97.770006846419136
aa(lp157
F179.42888733142235
aF95.69884150224928
aa(lp158
F177.55976163710289
aF93.91695189687735
aa(lp159
F177.42822147635138
aF91.451922830128552
aa(lp160
F177.15326757971832
aF89.043277509901316
aa(lp161
F175.8624165617469
aF87.034036649988792
aa(lp162
F174.52560196816415
aF85.042866573746721
aa(lp163
F173.7670620509295
aF82.824345242964029
aa(lp164
F171.8979363566101
aF81.042455637592127
aa(lp165
F171.13939643937545
aF78.823934306809463
aa(lp166
F169.59199607303771
aF76.915556961396646
aa(lp167
F168.51173082782128
aF74.82352337065484
aa(lp168
F166.64260513350183
aF73.04163376528291
aa(lp169
F165.88406521626717
aF70.823112434500274
aa(lp170
F164.88978077569675
aF68.697275108955267
aa(lp171
F163.25639960471307
aF66.822701498345651
aa(lp172
F161.38727391039362
aF65.040811892973693
aa(lp173
F159.51814821607417
aF63.258922287601791
aa(lp174
F157.64902252175472
aF61.477032682229833
aa(lp175
F156.89048260452006
aF59.258511351447197
aa(lp176
F155.02135691020061
aF57.476621746075267
aa(lp177
F153.15223121588116
aF55.694732140703309
aa(lp178
F151.28310552156171
aF53.912842535331407
aa(lp179
F149.41397982724226
aF52.130952929959449
aa(lp180
F147.54485413292281
aF50.349063324587519
aa(lp181
F145.67572843860336
aF48.567173719215589
aa(lp182
F144.50071301114605
aF46.512391582984094
aa(lp183
F143.04806282704931
aF44.566762783061023
aa(lp184
F141.36430262840958
aF42.711995910682532
aa(lp185
F140.42039721549514
aF40.5663518469064
aa(lp186
F138.55127152117569
aF38.78446224153447
aa(lp187
F137.79273160394104
aF36.565940910751806
aa(lp188
F136.66208733106862
aF34.493714058241153
aa(lp189
F135.16506599238693
aF32.565529974597183
aa(lp190
F134.40652607515221
aF30.347008643814547
aa(lp191
F132.53740038083282
aF28.565119038442589
aa(lp192
F130.66827468651337
aF26.783229433070687
aa(lp193
F129.90973476927871
aF24.564708102288009
aa(lp194
F128.04060907495926
aF22.782818496916093
aa(lp195
F126.1714833806398
aF21.000928891544149
aa(lp196
F125.41294346340514
aF18.782407560761513
aa(lp197
F124.11884607688656
aF16.774443025045912
aa(lp198
F122.78527785185101
aF14.78199662460689
aa(lp199
F122.02673793461635
aF12.56347529382424
aa(lp200
F120.98483597091381
aF10.456359008755356
aa(lp201
F119.39907232306224
aF8.5630643576696599
aa(lp202
F117.52994662874282
aF6.7811747522977299
aa(lp203
F116.28022039680913
aF4.7557655003030135
aa(lp204
F114.90228101718871
aF2.780763816143164
aa(lp205
F113.03315532286926
aF0.99887421077121985
aa(lp206
F111.16328312882446
aF0
aa(lp207
F110.0027233402577
aF2.0600099913025787
aa(lp208
F110.00032306349398
aF4.5776983352915579
aa(lp209
F109.99792278673023
aF7.0953866792805371
aa(lp210
F109.99552250996651
aF9.6130750232695164
aa(lp211
F109.99312223320278
aF12.130763367258524
aa(lp212
F109.99072195643903
aF14.648451711247503
aa(lp213
F109.98832167967531
aF17.166140055236482
aa(lp214
F109.98592140291159
aF19.68382839922549
aa(lp215
F109.98352112614786
aF22.201516743214469
aa(lp216
F109.98112084938414
aF24.719205087203449
aa(lp217
F109.97872057262042
aF27.236893431192442
aa(lp218
F109.97632029585667
aF29.754581775181435
aa(lp219
F109.97392001909292
aF32.272270119170429
aa(lp220
F109.97151974232919
aF34.789958463159422
aa(lp221
F109.96911946556547
aF37.307646807148416
aa(lp222
F109.96671918880175
aF39.825335151137381
aa(lp223
F109.964318912038
aF42.343023495126374
aa(lp224
F109.96191863527427
aF44.860711839115368
aa(lp225
F109.95951835851055
aF47.378400183104361
aa(lp226
F109.95711808174683
aF49.896088527093355
aa(lp227
F109.9547178049831
aF52.41377687108232
aa(lp228
F109.95231752821935
aF54.931465215071313
aa(lp229
F109.9499172514556
aF57.449153559060306
aa(lp230
F109.94751697469188
aF59.9668419030493
aa(lp231
F108.74033459358556
aF62.008427703958347
aa(lp232
F108.37329092551731
aF64.382017255898916
aa(lp233
F108.37089064875356
aF66.899705599887909
aa(lp234
F108.36849037198984
aF69.417393943876874
aa(lp235
F108.36609009522611
aF71.935082287865868
aa(lp236
F108.36368981846239
aF74.452770631854861
aa(lp237
F108.36128954169867
aF76.970458975843854
aa(lp238
F108.35888926493492
aF79.488147319832848
aa(lp239
F108.35648898817119
aF82.005835663821841
aa(lp240
F108.35408871140747
aF84.523524007810806
aa(lp241
F108.35168843464372
aF87.0412123517998
aa(lp242
F108.11813780229609
aF89.467555321608131
aa(lp243
F106.77746238546915
aF91.456387704649416
aa(lp244
F106.77506210870543
aF93.974076048638381
aa(lp245
F106.7726618319417
aF96.491764392627402
aa(lp246
F106.77026155517795
aF99.009452736616396
aa(lp247
F106.76786127841423
aF101.52714108060536
aa(lp248
F106.76546100165051
aF104.04482942459435
aa(lp249
F106.76306072488676
aF106.56251776858335
aa(lp250
F106.76066044812303
aF109.08020611257231
aa(lp251
F106.75826017135928
aF111.59789445656133
aa(lp252
F106.75585989459556
aF114.11558280055033
aa(lp253
F106.75345961783184
aF116.63327114453929
aa(lp254
F106.75105934106811
aF119.15095948852829
aa(lp255
F106.74865906430439
aF121.66864783251728
aa(lp256
F106.74625878754064
aF124.18633617650625
aa(lp257
F106.74385851077692
aF126.70402452049524
aa(lp258
F106.74145823401319
aF129.22171286448426
aa(lp259
F106.73905795724947
aF131.73940120847323
aa(lp260
F106.73665768048572
aF134.25708955246222
aa(lp261
F106.73425740372197
aF136.77477789645118
aa(lp262
F106.73185712695825
aF139.29246624044018
aa(lp263
F106.72945685019452
aF141.81015458442917
aa(lp264
F106.7270565734308
aF144.32784292841819
aa(lp265
F106.72465629666708
aF146.84553127240716
aa(lp266
F106.72225601990333
aF149.36321961639615
aa(lp267
F106.7198557431396
aF151.88090796038512
aa(lp268
F106.71745546637588
aF154.39859630437411
aa(lp269
F106.71505518961216
aF156.9162846483631
aa(lp270
F106.71265491284841
aF159.4339729923521
aa(lp271
F106.71025463608466
aF161.95166133634109
aa(lp272
F106.70785435932093
aF164.46934968033008
aa(lp273
F106.70545408255721
aF166.98703802431902
aa(lp274
F106.70305380579349
aF169.50472636830807
aa(lp275
F106.70065352902976
aF172.02241471229706
aa(lp276
F106.69825325226604
aF174.54010305628606
aa(lp277
F106.69585297550229
aF177.05779140027499
aa(lp278
F106.69345269873857
aF179.57547974426399
aa(lp279
F106.69105242197485
aF182.09316808825304
aa(lp280
F106.68865214521109
aF184.61085643224203
aa(lp281
F106.68625186844737
aF187.12854477623097
aa(lp282
F106.68385159168362
aF189.64623312021996
aa(lp283
F106.6814513149199
aF192.16392146420901
aa(lp284
F106.67905103815617
aF194.681609808198
aa(lp285
F106.67665076139242
aF197.199298152187
aa(lp286
F106.6742504846287
aF199.71698649617599
aa(lp287
F106.67185020786498
aF202.23467484016498
aa(lp288
F106.66944993110125
aF204.75236318415398
aa(lp289
F106.66704965433753
aF207.27005152814303
aa(lp290
F106.66464937757378
aF209.78773987213202
aa(lp291
F106.66224910081006
aF212.30542821612102
aa(lp292
F106.65984882404631
aF214.82311656011001
aa(lp293
F106.65744854728258
aF217.340804904099
aa(lp294
F106.65504827051886
aF219.858493248088
aa(lp295
F106.65264799375511
aF222.37618159207705
aa(lp296
F106.65024771699139
aF224.89386993606604
aa(lp297
F106.64784744022766
aF227.41155828005498
aa(lp298
F106.64544716346394
aF229.92924662404397
aa(lp299
F106.64304688670022
aF232.44693496803302
aa(lp300
F106.64064660993647
aF234.96462331202201
aa(lp301
F106.63824633317275
aF237.48231165601095
aa(lp302
F106.63584605640899
aF240
aa(lp303
F108.86071240323098
aF239.52220183213797
aa(lp304
F110.73323260150316
aF237.74354243561197
aa(lp305
F112.60575279977532
aF235.96488303908598
aa(lp306
F114.4782729980475
aF234.18622364256004
aa(lp307
F116.35079319631963
aF232.4075642460341
aa(lp308
F118.22331339459181
aF230.62890484950816
aa(lp309
F119.20694492584398
aF228.49897682659929
aa(lp310
F120.7787706982548
aF226.60148981773864
aa(lp311
F121.62137116833004
aF224.41582952038982
aa(lp312
F122.38413995606312
aF222.19862155409362
aa(lp313
F124.25666015433531
aF220.41996215756768
aa(lp314
F125.49664829225109
aF218.39134044716781
aa(lp315
F126.89194914034054
aF216.42409479474549
aa(lp316
F127.65471792807354
aF214.20688682844923
aa(lp317
F128.6427001138365
aF212.07867808545763
aa(lp318
F128.64510039060025
aF209.56098974146863
aa(lp319
F129.94302429127265
aF207.55526292956068
aa(lp320
F130.70579307900573
aF205.33805496326448
aa(lp321
F131.79115221218564
aF203.24832737975839
aa(lp322
F133.34108206501094
aF201.34218760044234
aa(lp323
F134.10385085274396
aF199.12497963414614
aa(lp324
F134.93720403377108
aF196.93566501804821
aa(lp325
F136.73913983874917
aF195.129112271324
aa(lp326
F138.61166003702135
aF193.35045287479801
aa(lp327
F139.65268135100359
aF191.24320399146643
aa(lp328
F141.22450712341441
aF189.34571698260584
aa(lp329
F142.00971781075958
aF187.13737754567967
aa(lp330
F142.79873317258898
aF184.93054162975625
aa(lp331
F144.37055894499986
aF183.0330546208956
aa(lp332
F144.37295922176355
aF180.5153662769066
aa(lp333
F146.17054437223089
aF178.70709425026513
aa(lp334
F148.04306457050308
aF176.92843485373919
aa(lp335
F149.08843653899612
aF174.82290525032477
aa(lp336
F150.66026231140694
aF172.92541824146417
aa(lp337
F151.44112234424131
aF170.71535952462079
aa(lp338
F152.23448836058151
aF168.51024288861458
aa(lp339
F153.80631413299233
aF166.61275587975399
aa(lp340
F154.83918011797959
aF164.50228419550245
aa(lp341
F155.38054018216695
aF162.19758052690435
aa(lp342
F156.36471769344564
aF160.06786826291005
aa(lp343
F157.12748648117872
aF157.85066029661385
aa(lp344
F158.52659200375234
aF155.88491816519416
aa(lp345
F158.52899228051609
aF153.36722982120523
aa(lp346
F159.41579284437779
aF151.19903639772528
aa(lp347
F160.17856163211081
aF148.98182843142905
aa(lp348
F161.67504410210148
aF147.05456745949499
aa(lp349
F162.81385061811608
aF144.98596106860694
aa(lp350
F163.57661940584904
aF142.76875310231074
aa(lp351
F164.82109592368687
aF140.74190509778478
aa(lp352
F165.10215698131515
aF138.33433716971834
aa(lp353
F166.97467717958733
aF136.5556777731924
aa(lp354
F167.96714774527231
aF134.4292427360746
aa(lp355
F169.53897351768319
aF132.531755727214
aa(lp356
F170.37273495332562
aF130.34260244407403
aa(lp357
F171.11319956685776
aF128.11658037436439
aa(lp358
F171.11559984362145
aF125.59889203037537
aa(lp359
F171.55128990598558
aF123.2524299754152
aa(lp360
F173.42381010425777
aF121.47377057888923
aa(lp361
F174.2616516652069
aF119.28622966866519
aa(lp362
F174.94934767972387
aF117.03935464629683
aa(lp363
F175.83587771438147
aF114.87105431581554
aa(lp364
F175.83827799114516
aF112.35336597182655
aa(lp365
F177.237654042923
aF110.38773074740823
aa(lp366
F178.00042283065602
aF108.17052278111206
aa(lp367
F179.87294302892815
aF106.39186338458609
aa(lp368
F181.74546322720033
aF104.61320398806015
aa(lp369
F182.12798135755224
aF102.24572959239518
aa(lp370
F183.27100080266644
aF100.17878805546775
aa(lp371
F185.14352100093856
aF98.40012865894181
aa(lp372
F186.84345867478481
aF96.553268565813397
aa(lp373
F187.77880998694383
aF94.404261296119671
aa(lp374
F189.65133018521595
aF92.625601899593676
aa(lp375
F191.52385038348814
aF90.846942503067737
aa(lp376
F193.1307617644282
aF88.963320530370993
aa(lp377
F194.15913936949335
aF86.85107514024557
aa(lp378
F196.03165956776547
aF85.072415743719631
aa(lp379
F197.9041797660376
aF83.293756347193693
aa(lp380
F199.41806485407153
aF81.373372494928645
aa(lp381
F200.53946875204281
aF79.297888984371554
aa(lp382
F201.30223753977583
aF77.080681018075381
aa(lp383
F203.17475773804802
aF75.302021621549443
aa(lp384
F205.0472779363202
aF73.523362225023504
aa(lp385
F206.91979813459233
aF71.744702828497537
aa(lp386
F208.79231833286451
aF69.966043431971599
aa(lp387
F210.42084526094743
aF68.090963432904516
aa(lp388
F211.42760731886972
aF65.97017606914946
aa(lp389
F213.30012751714185
aF64.191516672623521
aa(lp390
F215.17264771541403
aF62.412857276097583
aa(lp391
F217.04516791368616
aF60.634197879571616
aa(lp392
F218.91768811195834
aF58.855538483045649
aa(lp393
F220.79020831023053
aF57.07687908651971
aa(lp394
F221.55297709796355
aF54.859671120223538
aa(lp395
F222.99545144023421
aF52.911067362019764
aa(lp396
F224.18826608396876
aF50.863803757401342
aa(lp397
F226.06078628224094
aF49.085144360875404
aa(lp398
F226.82355506997396
aF46.867936394579232
aa(lp399
F228.69607526824609
aF45.089276998053265
aa(lp400
F229.45884405597911
aF42.872069031757093
aa(lp401
F231.3313642542513
aF41.093409635231154
aa(lp402
F232.42880635146298
aF39.008456964867236
aa(lp403
F233.96665324025651
aF37.097542272408958
aa(lp404
F235.83917343852875
aF35.31888287588302
aa(lp405
F237.14428366869549
aF33.315995938285425
aa(lp406
F238.4744624245339
aF31.323015513060852
aa(lp407
F238.71850971787012
aF28.90082058543581
aa(lp408
F240
aF26.888599580468423
aa(lp409
F238.70746174894612
aF25.117069023630336
aa(lp410
F236.38038485535554
aF25.848760330717397
aa(lp411
F234.06487273499181
aF26.607088465849728
aa(lp412
F232.06802690448774
aF28.099392010648785
aa(lp413
F229.42228372103739
aF28.09710790806912
aa(lp414
F226.7765405375871
aF28.094823805489483
aa(lp415
F224.1307973541368
aF28.092539702909818
aa(lp416
F221.48505417068645
aF28.090255600330181
aa(lp417
F219.48820834018244
aF29.582559145129238
aa(lp418
F217.27066580211721
aF30.566537958073013
aa(lp419
F214.84561932622807
aF31.07257858734863
aa(lp420
F212.19987614277773
aF31.070294484768993
aa(lp421
F210.20303031227371
aF32.562598029568022
aa(lp422
F207.9452261347792
aF33.453843302020374
aa(lp423
F205.56044129831935
aF34.052617471787443
aa(lp424
F202.914698114869
aF34.050333369207777
aa(lp425
F200.91785228436498
aF35.542636914006835
aa(lp426
F198.27210910091463
aF35.540352811427169
aa(lp427
F196.27526327041056
aF37.032656356226227
aa(lp428
F193.95706663377223
aF37.784801317941429
aa(lp429
F191.6326742564562
aF38.522675798445619
aa(lp430
F188.98693107300591
aF38.520391695865982
aa(lp431
F186.50414716470635
aF38.89344726536288
aa(lp432
F184.34434205905154
aF40.010411138085374
aa(lp433
F181.69859887560119
aF40.008127035505737
aa(lp434
F179.05285569215084
aF40.0058429329261
aa(lp435
F177.17870749736829
aF41.780752609310241
aa(lp436
F175.05916403114276
aF42.990450022524129
aa(lp437
F172.97482738226165
aF44.28123834182307
aa(lp438
F170.41657501718839
aF44.48046946474355
aa(lp439
F168.31210754859268
aF45.724891013796707
aa(lp440
F165.77398600323409
aF45.97048890696297
aa(lp441
F163.12824281978374
aF45.968204804383305
aa(lp442
F160.48249963633344
aF45.965920701803668
aa(lp443
F158.52782816269234
aF47.555363297204934
aa(lp444
F156.48880797532541
aF48.950527791401754
aa(lp445
F153.86510832902337
aF48.9990159691786
aa(lp446
F151.84621896137105
aF50.440547233621174
aa(lp447
F149.2004757779207
aF50.438263131041509
aa(lp448
F146.55473259447041
aF50.435979028461844
aa(lp449
F144.53966866168537
aF51.886321313125961
aa(lp450
F142.20830874485091
aF52.608147649112794
aa(lp451
F139.91529775001203
aF53.418302015480322
aa(lp452
F137.54558891118188
aF54.051800321086489
aa(lp453
F135.27270873605767
aF54.908321457699685
aa(lp454
F133.27586290555359
aF56.400625002498714
aa(lp455
F130.6301197221033
aF56.398340899919077
aa(lp456
F128.63327389159929
aF57.890644444718134
aa(lp457
F125.98753070814895
aF57.888360342138498
aa(lp458
F123.99068487764491
aF59.380663886937526
aa(lp459
F121.34494169419456
aF59.378379784357861
aa(lp460
F119.34809586369055
aF60.870683329156918
aa(lp461
F116.7023526802402
aF60.868399226577282
aa(lp462
F114.69082946139922
aF62.326896741494039
aa(lp463
F112.70866101923217
aF63.853006316175367
aa(lp464
F110.06291783578185
aF63.850722213595731
aa(lp465
F107.6967497108957
aF64.492375749454538
aa(lp466
F105.82422951262355
aF66.271035145980505
aa(lp467
F103.42348299132347
aF66.833045200614151
aa(lp468
F101.16150967895454
aF67.714687817954172
aa(lp469
F99.288989480682361
aF69.493347214480139
aa(lp470
F97.416469282410205
aF71.272006611006105
aa(lp471
F94.787202316361046
aF71.307671732431629
aa(lp472
F92.294909730178887
aF71.658826222440638
aa(lp473
F90.144613302406711
aF72.79769117465105
aa(lp474
F88.091029615072216
aF74.159311954953438
aa(lp475
F85.75966969823773
aF74.881138290940299
aa(lp476
F83.505178457948318
aF75.78001416166947
aa(lp477
F81.555789583131045
aF77.381624023453071
aa(lp478
F79.511486796940275
aF78.764621251267556
aa(lp479
F77.35190946802436
aF79.882109755965899
aa(lp480
F75.47938926975219
aF81.660769152491838
aa(lp481
F73.148029352917689
aF82.382595488478671
aa(lp482
F70.875206121977882
aF83.239247783085034
aa(lp483
F68.485309519248702
aF83.826248160452366
aa(lp484
F66.232617108023504
aF84.729267225304426
aa(lp485
F64.23577127751949
aF86.221570770103483
aa(lp486
F61.950069487307516
aF87.048560228951999
aa(lp487
F60.07754928903536
aF88.827219625477937
aa(lp488
F58.205029090763205
aF90.605879022003933
aa(lp489
F55.87366917392869
aF91.327705357990737
aa(lp490
F53.60264477205304
aF92.18850084671999
aa(lp491
F51.605798941549025
aF93.680804391519047
aa(lp492
F49.338429141987532
aF94.550017426490399
aa(lp493
F47.007069225153018
aF95.27184376247726
aa(lp494
F44.966364097090619
aF96.663127378537467
aa(lp495
F42.803189110046347
aF97.772329494990032
aa(lp496
F40.930668911774191
aF99.550988891515971
aa(lp497
F38.326929252632254
aF99.645450365555917
aa(lp498
F36.267949078105161
aF100.99464156348969
aa(lp499
F34.333237591624183
aF102.63005745515397
aa(lp500
F31.687494408173826
aF102.62777335257434
aa(lp501
F29.273869327601659
aF103.16012057145022
aa(lp502
F27.401349129329489
aF104.93877996797616
aa(lp503
F25.069989212494988
aF105.66060630396302
aa(lp504
F23.197469014222818
aF107.43926570048896
aa(lp505
F21.324948815950648
aF109.2179250970149
aa(lp506
F19.05752207220339
aF110.0870069739899
aa(lp507
F16.662228982281668
aF110.66157776898856
aa(lp508
F14.789708784009498
aF112.44023716551456
aa(lp509
F12.418087227745005
aF113.06932996100835
aa(lp510
F10.126988950340497
aF113.88388983748823
aa(lp511
F7.7754982137906623
aF114.55934940322771
aa(lp512
F5.4642691166714954
aF115.32754250946189
aa.