(lp1
I0
aI0
aI8
aI12
aI12
aI6
aI3
aI10
aI3
aI9
aI4
aI10
aI0
aI0
aI9
aI6
a.(lp1
I0
aI0
aI0
aI0
aI0
aI0
aI8
aI12
aI0
aI0
aI0
aI0
aI0
aI12
aI6
aI10
aI0
aI0
aI0
aI12
aI6
aI1
aI0
aI10
aI12
aI6
aI3
aI1
aI0
aI0
aI0
aI10
aI3
aI9
aI4
aI0
aI0
aI0
aI0
aI6
aI0
aI0
aI3
aI9
aI4
aI0
aI0
aI5
aI0
aI0
aI0
aI0
aI9
aI12
aI0
aI5
aI0
aI0
aI0
aI0
aI0
aI2
aI9
aI5
a.(lp1
(lp2
F0
aF117.72157079106256
aa(lp3
F1.7448657035250292
aF117.83773249010534
aa(lp4
F3.4897314070500656
aF117.95389418914812
aa(lp5
F5.2345971105750948
aF118.07005588819089
aa(lp6
F6.9794628141001454
aF118.1862175872337
aa(lp7
F8.7243285176251817
aF118.30237928627648
aa(lp8
F10.469194221150211
aF118.41854098531925
aa(lp9
F12.21405992467524
aF118.534702684362
aa(lp10
F13.825239325594922
aF118.85265715236648
aa(lp11
F14.953929671346643
aF119.89890465068595
aa(lp12
F16.600886110268178
aF120.16285547416629
aa(lp13
F18.3457518137932
aF120.27901717320907
aa(lp14
F19.538929848497077
aF121.22792373933137
aa(lp15
F20.667620194248769
aF122.27417123765085
aa(lp16
F21.884807074404009
aF123.18683765568929
aa(lp17
F23.524465455699826
aF123.46180453113334
aa(lp18
F24.653155801451533
aF124.50805202945284
aa(lp19
F26.271633259996946
aF124.81499044549358
aa(lp20
F27.510001062902617
aF125.69568532293528
aa(lp21
F28.913593742064847
aF126.32698153625506
aa(lp22
F30.366846324353673
aF126.88331861641777
aa(lp23
F31.555554224132777
aF127.83897262701657
aa(lp24
F33.223691585804744
aF128.07095190990023
aa(lp25
F34.352381931556437
aF129.1171994082197
aa(lp26
F35.48107227730813
aF130.16344690653918
aa(lp27
F36.839475188268608
aF130.86295480853957
aa(lp28
F38.337917538759214
aF131.35108020002161
aa(lp29
F39.481435670336509
aF132.37494589930108
aa(lp30
F41.19476280021027
aF132.5387134935041
aa(lp31
F42.323453145961977
aF133.58496099182361
aa(lp32
F43.45214349171367
aF134.63120849014308
aa(lp33
F44.765356634472312
aF135.39892808082408
aa(lp34
F46.308988753164726
aF135.81884178362552
aa(lp35
F47.437679098916433
aF136.86508928194499
aa(lp36
F49.152182820065249
aF137.0270808706284
aa(lp37
F50.893988930315174
aF137.147860872271
aa(lp38
F52.022679276066867
aF138.19410837059047
aa(lp39
F53.15136962181856
aF139.24035586890994
aa(lp40
F54.436103784201109
aF140.05106305215139
aa(lp41
F56.00821488326963
aF140.42798916239238
aa(lp42
F57.136905229021338
aF141.47423666071188
aa(lp43
F58.26559557477303
aF142.52048415903138
aa(lp44
F59.394285920524723
aF143.56673165735083
aa(lp45
F60.61711952687979
aF144.47087462539309
aa(lp46
F62.361985230404812
aF144.5870363244359
aa(lp47
F63.979286097675157
aF144.89575074599628
aa(lp48
F65.10797644342685
aF145.94199824431576
aa(lp49
F66.74881141599775
aF146.21518911424016
aa(lp50
F68.493677119522786
aF146.33135081328294
aa(lp51
F69.692976620577269
aF147.27101733296124
aa(lp52
F71.135637601590702
aF147.84334190404445
aa(lp53
F72.549821882028368
aF148.45865062644367
aa(lp54
F73.678512227780061
aF149.5048981247632
aa(lp55
F74.807202573531754
aF150.55114562308265
aa(lp56
F76.419558565726518
aF150.86732408556745
aa(lp57
F77.66404783498281
aF151.73877891656511
aa(lp58
F79.061519047794448
aF152.37931517632896
aa(lp59
F80.806384751319442
aF152.49547687537171
aa(lp60
F82.249048012133258
aF153.06779800521059
aa(lp61
F83.377738357884951
aF154.11404550353006
aa(lp62
F84.506428703636672
aF155.16029300184954
aa(lp63
F86.090305715455273
aF155.51945905689473
aa(lp64
F87.835171418980323
aF155.63562075593748
aa(lp65
F89.091428880787092
aF156.48931209049496
aa(lp66
F90.477131901048253
aF157.14761184669899
aa(lp67
F92.221997604573303
aF157.2637735457418
aa(lp68
F93.67642905793754
aF157.81833117914047
aa(lp69
F94.805119403689261
aF158.86457867745995
aa(lp70
F95.933809749440954
aF159.91082617577942
aa(lp71
F96.143282561952745
aF161.18534631757581
aa(lp72
F96.948485465479351
aF162.31192663255516
aa(lp73
F98.305709505364362
aF163.01321398131958
aa(lp74
F99.805330726930421
aF163.49955992603762
aa(lp75
F100.93402107268211
aF164.54580742435712
aa(lp76
F102.06271141843381
aF165.59205492267657
aa(lp77
F103.1914017641855
aF166.63830242099607
aa(lp78
F104.32009210993719
aF167.68454991931554
aa(lp79
F105.44878245568889
aF168.73079741763505
aa(lp80
F106.57747280144063
aF169.77704491595452
aa(lp81
F108.02578050865385
aF170.34084603704153
aa(lp82
F109.43431806289168
aF170.96467820943698
aa(lp83
F110.66774099072178
aF171.85283712780299
aa(lp84
F112.29116332434275
aF172.15231150291945
aa(lp85
F113.41985367009444
aF173.19855900123892
aa(lp86
F114.54854401584616
aF174.24480649955839
aa(lp87
F115.67723436159791
aF175.29105399787787
aa(lp88
F116.84875673340049
aF176.27264870104474
aa(lp89
F118.53407962304892
aF176.47868729136033
aa(lp90
F119.66276996880065
aF177.52493478967986
aa(lp91
F121.23558291899347
aF177.90080149084903
aa(lp92
F122.51961523025174
aF178.71256808316232
aa(lp93
F123.64830557600341
aF179.7588155814818
aa(lp94
F124.77699592175513
aF180.80506307980127
aa(lp95
F125.90568626750685
aF181.85131057812075
aa(lp96
F127.41659866167218
aF182.32061306409074
aa(lp97
F128.76253152895788
aF183.03894387160321
aa(lp98
F130.05855914374013
aF183.83260415485225
aa(lp99
F131.61937679040898
aF184.22657716508573
aa(lp100
F132.74806713616067
aF185.2728246634052
aa(lp101
F134.44538532933308
aF185.46075694465654
aa(lp102
F135.60491239761177
aF186.46045795688767
aa(lp103
F137.08734581140101
aF186.97274803541805
aa(lp104
F138.46175765906287
aF187.64809125037013
aa(lp105
F139.5904480048145
aF188.69433874868966
aa(lp106
F140.71913835056625
aF189.74058624700913
aa(lp107
F142.37126677553681
aF189.99673021694102
aa(lp108
F144.11613247906189
aF190.11289191598385
aa(lp109
F145.3041385277167
aF191.06960533565453
aa(lp110
F146.43282887346834
aF192.11585283397406
aa(lp111
F147.56151921922009
aF193.16210033229353
aa(lp112
F148.69020956497184
aF194.20834783061301
aa(lp113
F149.81889991072347
aF195.25459532893254
aa(lp114
F151.19424300028351
aF195.92853288094423
aa(lp115
F152.67574517217457
aF196.44222862241494
aa(lp116
F153.83620348235144
aF197.44052397170574
aa(lp117
F155.53259043362561
aF197.62986191589741
aa(lp118
F156.66128077937736
aF198.67610941421688
aa(lp119
F158.22302966794439
aF199.06867676151009
aa(lp120
F159.51812604082841
aF199.8637427076994
aa(lp121
F160.86499015001232
aF200.58066785227155
aa(lp122
F162.3749713022795
aF201.05137600118186
aa(lp123
F163.5036616480312
aF202.09762349950134
aa(lp124
F164.63235199378295
aF203.14387099782087
aa(lp125
F166.14891111414818
aF203.60465003379457
aa(lp126
F167.48919725523399
aF204.33150429130328
aa(lp127
F168.79087159621605
aF205.11664112455608
aa(lp128
F170.34604251668503
aF205.5191375847858
aa(lp129
F171.47473286243678
aF206.56538508310527
aa(lp130
F173.177697781809
aF206.74479391436037
aa(lp131
F174.33157812388782
aF207.75301837658773
aa(lp132
F175.81965826387693
aF208.25678500512183
aa(lp133
F177.18842338533892
aF208.9406516700702
aa(lp134
F178.31711373109061
aF209.98689916838973
aa(lp135
F179.44580407684231
aF211.0331466667092
aa(lp136
F180.574494422594
aF212.07939416502867
aa(lp137
F182.00067400655576
aF212.67659657836359
aa(lp138
F183.74553971008078
aF212.79275827740636
aa(lp139
F185.15949459974451
aF213.40841325367413
aa(lp140
F186.2881849454962
aF214.45466075199366
aa(lp141
F187.41687529124795
aF215.50090825031313
aa(lp142
F188.54556563699964
aF216.5471557486326
aa(lp143
F189.92655545275949
aF217.21256985064807
aa(lp144
F191.40241089845068
aF217.73478904211507
aa(lp145
F192.53110124420243
aF218.7810365404346
aa(lp146
F193.65979158995412
aF219.82728403875407
aa(lp147
F195.21047641689535
aF220.23655203217109
aa(lp148
F196.51663685140517
aF221.01491733223654
aa(lp149
F197.85243689896328
aF221.7485431229326
aa(lp150
F199.37348211285627
aF222.202550625719
aa(lp151
F200.50217245860796
aF223.24879812403853
aa(lp152
F201.63086280435965
aF224.295045622358
aa(lp153
F202.7595531501114
aF225.34129312067748
aa(lp154
F203.88824349586309
aF226.38754061899695
aa(lp155
F205.01693384161484
aF227.43378811731642
aa(lp156
F206.14562418736648
aF228.48003561563596
aa(lp157
F207.27431453311823
aF229.52628311395537
aa(lp158
F208.46960268079579
aF230.47200457037329
aa(lp159
F210.13115979456927
aF230.71391640743789
aa(lp160
F211.25985014032096
aF231.76016390575737
aa(lp161
F211.41859622692863
aF233.04728120045647
aa(lp162
F212.27452585635939
aF234.1612643625331
aa(lp163
F212.87873343957301
aF235.33775857866775
aa(lp164
F213.28920157239781
aF236.5623648193089
aa(lp165
F214.41789191814951
aF237.60861231762837
aa(lp166
F215.5465822639012
aF238.65485981594784
aa(lp167
F216.67527260965289
aF239.70110731426732
aa(lp168
F217.50001141307041
aF240.00000000000003
aa(lp169
F217.64866792191378
aF238.63654429732046
aa(lp170
F217.79732443075716
aF237.27308859464094
aa(lp171
F217.94598093960059
aF235.90963289196137
aa(lp172
F218.09463744844396
aF234.54617718928174
aa(lp173
F218.24329395728734
aF233.18272148660222
aa(lp174
F218.39195046613071
aF231.81926578392265
aa(lp175
F218.54060697497408
aF230.45581008124313
aa(lp176
F218.68926348381751
aF229.09235437856356
aa(lp177
F218.12998171143505
aF227.90470357192893
aa(lp178
F217.22912627117307
aF226.80187700035228
aa(lp179
F217.37778278001645
aF225.43842129767276
aa(lp180
F217.52643928885982
aF224.07496559499319
aa(lp181
F217.67509579770319
aF222.71150989231356
aa(lp182
F217.4573498845366
aF221.43904423978441
aa(lp183
F216.32865953878485
aF220.39279674146488
aa(lp184
F216.36361509390218
aF219.05757681142276
aa(lp185
F216.51227160274556
aF217.69412110874319
aa(lp186
F216.66092811158899
aF216.33066540606367
aa(lp187
F216.80958462043236
aF214.9672097033841
aa(lp188
F216.95824112927573
aF213.60375400070458
aa(lp189
F217.10689763811911
aF212.24029829802495
aa(lp190
F217.25555414696248
aF210.87684259534538
aa(lp191
F217.40421065580591
aF209.51338689266586
aa(lp192
F217.55286716464929
aF208.14993118998629
aa(lp193
F217.70152367349266
aF206.78647548730677
aa(lp194
F217.85018018233603
aF205.4230197846272
aa(lp195
F217.99883669117941
aF204.05956408194763
aa(lp196
F218.14749320002278
aF202.69610837926805
aa(lp197
F218.29614970886615
aF201.33265267658854
aa(lp198
F218.44480621770958
aF199.96919697390891
aa(lp199
F218.59346272655296
aF198.60574127122939
aa(lp200
F218.74211923539633
aF197.24228556854982
aa(lp201
F218.8907757442397
aF195.87882986587024
aa(lp202
F219.03943225308313
aF194.51537416319067
aa(lp203
F219.18808876192651
aF193.1519184605111
aa(lp204
F219.33674527076988
aF191.78846275783158
aa(lp205
F219.48540177961326
aF190.42500705515195
aa(lp206
F219.63405828845663
aF189.06155135247238
aa(lp207
F219.7827147973
aF187.69809564979286
aa(lp208
F219.93137130614338
aF186.33463994711329
aa(lp209
F220.08002781498675
aF184.97118424443372
aa(lp210
F220.22868432383012
aF183.60772854175414
aa(lp211
F220.3773408326735
aF182.24427283907463
aa(lp212
F220.52599734151687
aF180.880817136395
aa(lp213
F220.6746538503603
aF179.51736143371542
aa(lp214
F220.82331035920367
aF178.15390573103591
aa(lp215
F220.97196686804705
aF176.79045002835633
aa(lp216
F221.12062337689042
aF175.42699432567676
aa(lp217
F221.26927988573379
aF174.06353862299719
aa(lp218
F221.41793639457717
aF172.70008292031761
aa(lp219
F221.5665929034206
aF171.33662721763804
aa(lp220
F221.71524941226397
aF169.97317151495847
aa(lp221
F221.86390592110735
aF168.60971581227895
aa(lp222
F222.01256242995072
aF167.24626010959938
aa(lp223
F222.16121893879415
aF165.8828044069198
aa(lp224
F222.30987544763752
aF164.51934870424023
aa(lp225
F222.4585319564809
aF163.15589300156068
aa(lp226
F222.60718846532427
aF161.79243729888111
aa(lp227
F222.75584497416764
aF160.42898159620151
aa(lp228
F222.90450148301102
aF159.06552589352196
aa(lp229
F223.05315799185439
aF157.70207019084239
aa(lp230
F223.20181450069782
aF156.33861448816285
aa(lp231
F223.3504710095412
aF154.97515878548327
aa(lp232
F223.49912751838457
aF153.61170308280373
aa(lp233
F223.64778402722794
aF152.24824738012413
aa(lp234
F223.79644053607137
aF150.88479167744455
aa(lp235
F223.94509704491475
aF149.52133597476501
aa(lp236
F224.09375355375812
aF148.15788027208544
aa(lp237
F224.24241006260149
aF146.79442456940589
aa(lp238
F224.39106657144487
aF145.43096886672632
aa(lp239
F224.53972308028824
aF144.06751316404677
aa(lp240
F224.68837958913161
aF142.70405746136717
aa(lp241
F224.83703609797499
aF141.3406017586876
aa(lp242
F224.98569260681836
aF139.97714605600805
aa(lp243
F225.13434911566173
aF138.61369035332848
aa(lp244
F225.28300562450511
aF137.25023465064893
aa(lp245
F225.43166213334854
aF135.88677894796936
aa(lp246
F225.58031864219191
aF134.52332324528982
aa(lp247
F225.72897515103529
aF133.15986754261021
aa(lp248
F225.87763165987866
aF131.79641183993064
aa(lp249
F226.02628816872203
aF130.4329561372511
aa(lp250
F226.17494467756541
aF129.06950043457152
aa(lp251
F226.32360118640884
aF127.70604473189198
aa(lp252
F226.47225769525221
aF126.34258902921238
aa(lp253
F226.62091420409558
aF124.9791333265328
aa(lp254
F226.76957071293896
aF123.61567762385326
aa(lp255
F226.91822722178239
aF122.25222192117369
aa(lp256
F227.06688373062576
aF120.88876621849414
aa(lp257
F227.21554023946914
aF119.52531051581457
aa(lp258
F227.36419674831251
aF118.16185481313502
aa(lp259
F227.51285325715588
aF116.79839911045548
aa(lp260
F227.66150976599926
aF115.43494340777588
aa(lp261
F227.81016627484263
aF114.0714877050963
aa(lp262
F227.95882278368606
aF112.70803200241676
aa(lp263
F228.10747929252943
aF111.34457629973718
aa(lp264
F228.25613580137281
aF109.98112059705764
aa(lp265
F228.40479231021618
aF108.61766489437807
aa(lp266
F228.55344881905955
aF107.25420919169846
aa(lp267
F228.70210532790293
aF105.89075348901892
aa(lp268
F228.8507618367463
aF104.52729778633935
aa(lp269
F228.99941834558967
aF103.1638420836598
aa(lp270
F229.14807485443305
aF101.80038638098023
aa(lp271
F229.29673136327642
aF100.43693067830068
aa(lp272
F229.4453878721198
aF99.073474975621082
aa(lp273
F229.59404438096323
aF97.710019272941508
aa(lp274
F229.7427008898066
aF96.346563570261964
aa(lp275
F229.89135739864997
aF94.98310786758239
aa(lp276
F230.04001390749335
aF93.619652164902845
aa(lp277
F230.18867041633678
aF92.256196462223272
aa(lp278
F230.33732692518015
aF90.892740759543727
aa(lp279
F230.48598343402352
aF89.529285056864126
aa(lp280
F230.6346399428669
aF88.165829354184552
aa(lp281
F230.78329645171027
aF86.802373651505008
aa(lp282
F230.93195296055364
aF85.438917948825434
aa(lp283
F231.08060946939707
aF84.075462246145889
aa(lp284
F231.22926597824045
aF82.712006543466316
aa(lp285
F231.37792248708382
aF81.348550840786743
aa(lp286
F231.5265789959272
aF79.98509513810717
aa(lp287
F231.67523550477063
aF78.621639435427625
aa(lp288
F231.823892013614
aF77.258183732748051
aa(lp289
F231.97254852245737
aF75.894728030068478
aa(lp290
F232.12120503130075
aF74.531272327388905
aa(lp291
F232.26986154014412
aF73.167816624709332
aa(lp292
F232.41851804898749
aF71.804360922029758
aa(lp293
F232.56717455783087
aF70.440905219350213
aa(lp294
F232.71583106667424
aF69.07744951667064
aa(lp295
F232.86448757551761
aF67.713993813991067
aa(lp296
F233.01314408436099
aF66.350538111311522
aa(lp297
F233.16180059320436
aF64.987082408631949
aa(lp298
F233.31045710204779
aF63.623626705952375
aa(lp299
F233.45911361089117
aF62.260171003272802
aa(lp300
F233.60777011973454
aF60.896715300593257
aa(lp301
F233.75642662857791
aF59.533259597913684
aa(lp302
F233.90508313742129
aF58.169803895234111
aa(lp303
F234.05373964626466
aF56.806348192554566
aa(lp304
F234.20239615510803
aF55.442892489874993
aa(lp305
F234.35105266395146
aF54.079436787195419
aa(lp306
F234.49970917279484
aF52.715981084515846
aa(lp307
F234.64836568163821
aF51.352525381836301
aa(lp308
F234.79702219048164
aF49.989069679156728
aa(lp309
F234.94567869932501
aF48.625613976477155
aa(lp310
F235.09433520816839
aF47.262158273797581
aa(lp311
F235.24299171701176
aF45.898702571118008
aa(lp312
F235.39164822585514
aF44.535246868438463
aa(lp313
F235.54030473469851
aF43.17179116575889
aa(lp314
F235.68896124354188
aF41.808335463079317
aa(lp315
F235.83761775238531
aF40.444879760399758
aa(lp316
F235.98627426122869
aF39.081424057720184
aa(lp317
F236.13493077007206
aF37.717968355040639
aa(lp318
F236.28358727891543
aF36.354512652361052
aa(lp319
F236.43224378775886
aF34.991056949681507
aa(lp320
F236.58090029660224
aF33.627601247001948
aa(lp321
F236.72955680544561
aF32.264145544322389
aa(lp322
F236.87821331428898
aF30.900689841642802
aa(lp323
F237.02686982313236
aF29.537234138963242
aa(lp324
F237.17552633197568
aF28.173778436283683
aa(lp325
F237.32418284081905
aF26.81032273360411
aa(lp326
F237.47283934966248
aF25.446867030924551
aa(lp327
F237.62149585850585
aF24.083411328244992
aa(lp328
F237.77015236734923
aF22.719955625565433
aa(lp329
F237.9188088761926
aF21.356499922885845
aa(lp330
F238.06746538503603
aF19.993044220206286
aa(lp331
F238.2161218938794
aF18.629588517526713
aa(lp332
F238.36477840272278
aF17.266132814847154
aa(lp333
F238.51343491156615
aF15.902677112167595
aa(lp334
F238.66209142040952
aF14.539221409488036
aa(lp335
F238.8107479292529
aF13.175765706808448
aa(lp336
F238.95940443809633
aF11.812310004128889
aa(lp337
F239.1080609469397
aF10.448854301449316
aa(lp338
F239.25671745578308
aF9.085398598769757
aa(lp339
F239.40537396462645
aF7.7219428960901979
aa(lp340
F239.55403047346988
aF6.3584871934106388
aa(lp341
F239.70268698231325
aF4.9950314907310656
aa(lp342
F239.85134349115663
aF3.6315757880514923
aa(lp343
F240
aF2.2681200853719332
aa(lp344
F239.65583482448562
aF1.027048589458488
aa(lp345
F238.52505123671705
aF0
aa(lp346
F237.18612884002403
aF0.88197004810490398
aa(lp347
F235.84720644333095
aF1.763940096209808
aa(lp348
F234.50828404663787
aF2.6459101443146977
aa(lp349
F233.16936164994479
aF3.5278801924195875
aa(lp350
F232.88070287404554
aF4.8347022606453152
aa(lp351
F231.64950251694216
aF5.7602479646380544
aa(lp352
F230.94575083041087
aF6.8991568936020542
aa(lp353
F230.12964338393954
aF7.9926157368564787
aa(lp354
F228.79072098724652
aF8.8745857849613685
aa(lp355
F227.45179859055344
aF9.7565558330662583
aa(lp356
F227.0758467431416
aF11.028066159515504
aa(lp357
F225.93193945755081
aF11.988923605284711
aa(lp358
F224.59301706085779
aF12.870893653389601
aa(lp359
F223.25409466416471
aF13.752863701494491
aa(lp360
F221.91517226747158
aF14.63483374959938
aa(lp361
F220.57624987077855
aF15.516803797704284
aa(lp362
F219.63335158628973
aF16.558973285983384
aa(lp363
F219.05639073777593
aF17.749171569922737
aa(lp364
F217.71746834108285
aF18.631141618027641
aa(lp365
F216.37854594438977
aF19.513111666132531
aa(lp366
F214.79276148824937
aF19.788098289326157
aa(lp367
F213.30576710052082
aF20.305989529803114
aa(lp368
F211.96684470382775
aF21.187959577908003
aa(lp369
F210.62792230713467
aF22.069929626012893
aa(lp370
F210.34062370088475
aF23.377301909262513
aa(lp371
F209.1080631741321
aF24.302297398231318
aa(lp372
F207.76914077743902
aF25.184267446336207
aa(lp373
F206.61937612245879
aF26.142755472496404
aa(lp374
F206.24928164443645
aF27.41663521855466
aa(lp375
F204.91035924774337
aF28.29860526665955
aa(lp376
F203.57143685105029
aF29.18057531476444
aa(lp377
F202.74947203518951
aF30.271664738409882
aa(lp378
F202.05157771804772
aF31.412943086982864
aa(lp379
F200.71265532135465
aF32.294913135087754
aa(lp380
F199.37373292466157
aF33.176883183192658
aa(lp381
F198.03481052796849
aF34.058853231297562
aa(lp382
F197.09327241312889
aF35.10157293460054
aa(lp383
F196.51495139496586
aF36.291221003516014
aa(lp384
F195.17602899827278
aF37.173191051620918
aa(lp385
F193.83710660157971
aF38.055161099725794
aa(lp386
F192.49818420488663
aF38.937131147830712
aa(lp387
F191.15926180819361
aF39.819101195935602
aa(lp388
F189.82033941150047
aF40.701071244040492
aa(lp389
F188.48141701480745
aF41.583041292145396
aa(lp390
F187.14249461811437
aF42.465011340250271
aa(lp391
F185.76061410012659
aF43.241356134925724
aa(lp392
F184.06971577424537
aF43.257889203920854
aa(lp393
F182.73079337755235
aF44.139859252025786
aa(lp394
F181.39187098085927
aF45.021829300130662
aa(lp395
F180.05294858416619
aF45.903799348235566
aa(lp396
F178.71402618747311
aF46.785769396340442
aa(lp397
F177.37510379078003
aF47.667739444445345
aa(lp398
F175.78063853719465
aF47.921381758286969
aa(lp399
F174.30232494691109
aF48.460617308115957
aa(lp400
F172.84942822058042
aF49.062347739366601
aa(lp401
F171.22954610304208
aF49.25349517178654
aa(lp402
F169.890623706349
aF50.135465219891444
aa(lp403
F168.17335220044123
aF50.087152021403455
aa(lp404
F166.81784486248
aF50.928343083562083
aa(lp405
F165.24214188382695
aF51.228118002483086
aa(lp406
F163.74506601861106
aF51.721220947232638
aa(lp407
F162.40614362191798
aF52.603190995337542
aa(lp408
F161.0672212252249
aF53.485161043442446
aa(lp409
F159.72829882853182
aF54.367131091547321
aa(lp410
F158.38937643183874
aF55.249101139652225
aa(lp411
F157.05045403514566
aF56.131071187757129
aa(lp412
F155.71153163845264
aF57.013041235862005
aa(lp413
F154.37260924175956
aF57.895011283966909
aa(lp414
F153.03368684506648
aF58.776981332071813
aa(lp415
F151.69476444837341
aF59.658951380176717
aa(lp416
F151.51382771206386
aF61.009349104290266
aa(lp417
F150.17490531537078
aF61.89131915239517
aa(lp418
F148.8359829186777
aF62.773289200500045
aa(lp419
F147.49706052198462
aF63.655259248604978
aa(lp420
F146.15813812529154
aF64.537229296709853
aa(lp421
F145.86537241710357
aF65.84239003110963
aa(lp422
F144.63827899228897
aF66.769597068928277
aa(lp423
F143.2993565955959
aF67.651567117033181
aa(lp424
F141.89778602381404
aF68.37949808774809
aa(lp425
F140.22657775172695
aF68.444444980703764
aa(lp426
F138.88765535503387
aF69.32641502880864
aa(lp427
F137.54873295834079
aF70.208385076913544
aa(lp428
F136.20981056164771
aF71.090355125018448
aa(lp429
F134.93500550575067
aF71.998261881986366
aa(lp430
F134.68995142864509
aF73.322722897236901
aa(lp431
F133.35102903195201
aF74.204692945341804
aa(lp432
F131.72586446822345
aF74.382851920614399
aa(lp433
F130.27825018808301
aF74.997570809012416
aa(lp434
F128.93932779138993
aF75.87954085711732
aa(lp435
F127.60040539469684
aF76.761510905222224
aa(lp436
F126.26148299800379
aF77.643480953327099
aa(lp437
F124.92256060131071
aF78.525451001432003
aa(lp438
F123.49075460881652
aF79.179039243018451
aa(lp439
F121.8497817574417
aF79.318328865102615
aa(lp440
F120.51085936074863
aF80.200298913207519
aa(lp441
F118.81467858867727
aF80.203843525055277
aa(lp442
F117.43808051687968
aF80.993176776878101
aa(lp443
F116.0991581201866
aF81.875146824983005
aa(lp444
F114.69712365897384
aF82.601937186257317
aa(lp445
F113.02637927631763
aF82.668024688653588
aa(lp446
F111.68745687962458
aF83.549994736758464
aa(lp447
F110.34853448293153
aF84.431964784863368
aa(lp448
F108.83470302574541
aF84.883869148416579
aa(lp449
F107.27575563906252
aF85.224842648533951
aa(lp450
F105.90349270913121
aF86.024835129496154
aa(lp451
F104.20297679519352
aF86.017720512204562
aa(lp452
F102.86405439850047
aF86.899690560309466
aa(lp453
F101.52513200180739
aF87.781660608414313
aa(lp454
F100.18620960511437
aF88.663630656519217
aa(lp455
F98.847287208421321
aF89.54560070462415
aa(lp456
F97.113430761245397
aF89.456508520189828
aa(lp457
F95.774508364552318
aF90.338478568294761
aa(lp458
F94.43558596785924
aF91.22044861639958
aa(lp459
F92.992306829585161
aF91.845826733937059
aa(lp460
F91.362807123990265
aF92.013326480070219
aa(lp461
F90.023884727297215
aF92.895296528175095
aa(lp462
F88.684962330604165
aF93.777266576279999
aa(lp463
F87.346039933911115
aF94.659236624384874
aa(lp464
F85.943541583267532
aF95.384886376218731
aa(lp465
F84.273261090042141
aF95.452114488055457
aa(lp466
F82.93433869334909
aF96.334084536160361
aa(lp467
F81.595416296656012
aF97.216054584265208
aa(lp468
F80.25649389996299
aF98.098024632370112
aa(lp469
F78.894776336949903
aF98.923946018500345
aa(lp470
F77.183715056094016
aF98.890902496040724
aa(lp471
F75.844792659400909
aF99.772872544145599
aa(lp472
F74.218700316810683
aF99.948750300537199
aa(lp473
F72.772013815531949
aF100.56575040781621
aa(lp474
F71.28749000019647
aF101.08971628161683
aa(lp475
F69.699234971662946
aF101.35862827148679
aa(lp476
F68.356279683582272
aF102.2306822626964
aa(lp477
F66.626456127793944
aF102.1515061351574
aa(lp478
F65.287533731100908
aF103.03347618326228
aa(lp479
F63.680203663443024
aF103.25548654473326
aa(lp480
F62.214754887231891
aF103.82635404693286
aa(lp481
F60.748993346828811
aF104.39645252581289
aa(lp482
F59.141976043362916
aF104.61923191060353
aa(lp483
F57.803053646669866
aF105.50120195870841
aa(lp484
F56.464131249976802
aF106.38317200681328
aa(lp485
F54.886572713600387
aF106.67838448797215
aa(lp486
F53.391352406107799
aF107.17604987048389
aa(lp487
F51.955362396986132
aF107.81935046905173
aa(lp488
F50.318573562238825
aF107.96892773415451
aa(lp489
F48.979651165545789
aF108.85089778225938
aa(lp490
F47.640728768852753
aF109.73286783036426
aa(lp491
F46.092941763757764
aF110.10128243121099
aa(lp492
F44.348076060232728
aF109.98512073216821
aa(lp493
F42.834093477807826
aF110.43665350960057
aa(lp494
F41.495171081114776
aF111.31862355770545
aa(lp495
F40.15624868442174
aF112.20059360581033
aa(lp496
F38.485655427004318
aF112.26705269432748
aa(lp497
F37.083469840552738
aF112.99347146948094
aa(lp498
F35.554445110390105
aF113.40801867540711
aa(lp499
F34.010690996683735
aF113.78634933315152
aa(lp500
F32.623234793775879
aF114.54898465648668
aa(lp501
F30.937912152814761
aF114.57922719682213
aa(lp502
F29.598989756121725
aF115.46119724492701
aa(lp503
F27.947158773636687
aF115.57378893852353
aa(lp504
F26.202293070111651
aF115.45762723948076
aa(lp505
F24.79235446507677
aF116.16498292416333
aa(lp506
F23.27108275349741
aF116.59859322056039
aa(lp507
F21.719575621207781
aF116.95786078783394
aa(lp508
F20.339872436883212
aF117.73955920164002
aa(lp509
F18.646796777338821
aF117.75073865150455
aa(lp510
F17.307874380645757
aF118.63270869960942
aa(lp511
F15.968951983952721
aF119.5146787477143
aa(lp512
F14.630029587259671
aF120.39664879581917
aa.