(lp1
I6
aI5
aI8
aI0
aI5
aI13
aI15
aI0
aI0
aI7
aI10
aI6
aI0
aI1
aI10
aI5
a.(lp1
I0
aI6
aI5
aI0
aI0
aI0
aI0
aI0
aI8
aI5
aI5
aI0
aI0
aI4
aI0
aI0
aI6
aI0
aI5
aI0
aI6
aI5
aI0
aI0
aI5
aI0
aI9
aI8
aI5
aI5
aI0
aI0
aI0
aI0
aI10
aI6
aI0
aI5
aI0
aI6
aI0
aI0
aI10
aI5
aI0
aI5
aI8
aI5
aI0
aI0
aI2
aI0
aI0
aI9
aI6
aI0
aI0
aI0
aI0
aI0
aI0
aI10
aI5
aI0
a.(lp1
(lp2
F240
aF122.98189554455308
aa(lp3
F239.03498269691403
aF123.70828952164118
aa(lp4
F238.24705777097972
aF124.74122645699555
aa(lp5
F237.79067403906458
aF126.34805381065229
aa(lp6
F236.82565673597855
aF127.07444778774038
aa(lp7
F236.10252589554369
aF128.21954184112894
aa(lp8
F235.58134807812905
aF129.71421207675144
aa(lp9
F234.61633077504302
aF130.44060605383953
aa(lp10
F233.95799402010772
aF131.6978572252624
aa(lp11
F233.37202211719358
aF133.08037034285064
aa(lp12
F232.40700481410758
aF133.80676431993874
aa(lp13
F231.81346214467172
aF135.17617260939579
aa(lp14
F231.42187249825602
aF136.89515708108667
aa(lp15
F230.88340480149466
aF138.35989892087275
aa(lp16
F229.91838749840866
aF139.08629289796085
aa(lp17
F229.27734062282002
aF140.37347246522006
aa(lp18
F228.88575097640438
aF142.09245693691093
aa(lp19
F228.3947874857958
aF143.63942749889486
aa(lp20
F227.42977018270977
aF144.36582147598295
aa(lp21
F226.74121910096835
aF145.57077232104433
aa(lp22
F226.1854615248603
aF147.00558576499401
aa(lp23
F225.22044422177427
aF147.7319797420821
aa(lp24
F224.59668722553235
aF149.04908770517778
aa(lp25
F223.9761355639248
aF150.37174403109321
aa(lp26
F223.0111182608388
aF151.09813800818131
aa(lp27
F222.45215535009635
aF152.52740308931112
aa(lp28
F221.76680960298933
aF153.73790229719236
aa(lp29
F220.8017922999033
aF154.46429627428046
aa(lp30
F220.30762347466035
aF156.00571847344457
aa(lp31
F219.55748364205382
aF157.10406056329157
aa(lp32
F218.59246633896782
aF157.83045454037966
aa(lp33
F218.16309159922432
aF159.48403385757797
aa(lp34
F217.34815768111832
aF160.47021882939072
aa(lp35
F216.38314037803238
aF161.19661280647881
aa(lp36
F215.41812307494635
aF161.9230067835669
aa(lp37
F214.65720714118373
aF163.0026956824629
aa(lp38
F214.17381441709691
aF164.56277107257802
aa(lp39
F213.20879711401088
aF165.28916504966611
aa(lp40
F212.24377981092485
aF166.01555902675426
aa(lp41
F211.27876250783882
aF166.74195300384235
aa(lp42
F210.31374520475276
aF167.46834698093045
aa(lp43
F209.39838045412279
aF168.28068841979041
aa(lp44
F209.00679080770712
aF169.99967289148134
aa(lp45
F208.10441924381732
aF170.83450524702965
aa(lp46
F207.25384857868679
aF171.7590038039238
aa(lp47
F206.86225893227109
aF173.47798827561473
aa(lp48
F206.47066928585542
aF175.19697274730561
aa(lp49
F205.6158019281184
aF176.11403382505176
aa(lp50
F204.71772705683509
aF176.95630365974807
aa(lp51
F204.32613741041939
aF178.675288131439
aa(lp52
F203.93454776400372
aF180.39427260312993
aa(lp53
F203.12718461241946
aF181.39356240307387
aa(lp54
F202.18160553498339
aF182.15360351557246
aa(lp55
F201.79001588856772
aF183.87258798726339
aa(lp56
F200.91785865148404
aF184.75972066917302
aa(lp57
F200.03707365954739
aF185.63191889970579
aa(lp58
F199.64548401313169
aF187.35090337139673
aa(lp59
F198.70853269054854
aF188.12587893527223
aa(lp60
F197.89254178411139
aF189.11023428383925
aa(lp61
F197.50095213769569
aF190.82921875553018
aa(lp62
F197.10936249128
aF192.54820322722105
aa(lp63
F196.71777284486433
aF194.26718769891193
aa(lp64
F196.32618319844863
aF195.98617217060286
aa(lp65
F195.6613326653227
aF197.23214813714026
aa(lp66
F194.69631536223667
aF197.95854211422835
aa(lp67
F194.18165132301263
aF199.46448755473631
aa(lp68
F193.45200670438723
aF200.59830640323941
aa(lp69
F192.48698940130123
aF201.32470038032756
aa(lp70
F192.03711944757666
aF202.94280293886959
aa(lp71
F191.64552980116096
aF204.66178741056052
aa(lp72
F190.96338938868831
aF205.87783498126151
aa(lp73
F189.99837208560228
aF206.60422895834967
aa(lp74
F189.50099792572496
aF208.14010279469397
aa(lp75
F189.10940827930926
aF209.8590872663849
aa(lp76
F188.47477207298937
aF211.15736355928362
aa(lp77
F187.50975476990337
aF211.88375753637172
aa(lp78
F186.96487640387326
aF213.33740265051824
aa(lp79
F186.57328675745757
aF215.05638712220917
aa(lp80
F186.1816971110419
aF216.7753715939001
aa(lp81
F185.70686340252703
aF218.35026244922869
aa(lp82
F184.74184609944101
aF219.07665642631684
aa(lp83
F184.03716523560593
aF220.2536869780335
aa(lp84
F183.49753744159159
aF221.71642071532784
aa(lp85
F182.53252013850553
aF222.44281469241605
aa(lp86
F181.5675028354195
aF223.16920866950414
aa(lp87
F180.6024855323335
aF223.89560264659224
aa(lp88
F180.13969113114959
aF225.49133327460936
aa(lp89
F179.74810148473389
aF227.21031774630029
aa(lp90
F179.35651183831823
aF228.92930221799116
aa(lp91
F178.79959416495717
aF230.36210755944921
aa(lp92
F177.83457686187111
aF231.08850153653731
aa(lp93
F176.86955955878511
aF231.81489551362546
aa(lp94
F175.90454225569908
aF232.54128949071355
aa(lp95
F175.45903773386189
aF234.16694851456708
aa(lp96
F174.66023359784961
aF235.18105377972461
aa(lp97
F173.70609550484156
aF235.9262794270096
aa(lp98
F173.31450585842589
aF237.64526389870048
aa(lp99
F172.45090763691417
aF238.54721204582381
aa(lp100
F171.48589033382811
aF239.27360602291191
aa(lp101
F170.52087303074208
aF240
aa(lp102
F169.79996577593329
aF239.65480951050915
aa(lp103
F169.38873986169321
aF237.95019233422317
aa(lp104
F168.97751394745316
aF236.24557515793725
aa(lp105
F168.56628803321306
aF234.54095798165133
aa(lp106
F168.15506211897301
aF232.83634080536541
aa(lp107
F168.03870359692655
aF231.12644664251303
aa(lp108
F168.29264675761306
aF229.40992551087038
aa(lp109
F167.88142084337298
aF227.70530833458452
aa(lp110
F167.4701949291329
aF226.00069115829859
aa(lp111
F167.05896901489285
aF224.29607398201262
aa(lp112
F166.64774310065275
aF222.59145680572669
aa(lp113
F166.31515169889832
aF220.88543237561396
aa(lp114
F166.70674134531401
aF219.16644790392314
aa(lp115
F166.37410182505272
aF217.46042433494574
aa(lp116
F166.13222404597127
aF215.75277648162347
aa(lp117
F166.5116864636928
aF214.03400904045071
aa(lp118
F166.10046054945272
aF212.32939186416479
aa(lp119
F165.68923463521264
aF210.62477468787881
aa(lp120
F165.27800872097257
aF208.92015751159295
aa(lp121
F164.86678280673252
aF207.21554033530703
aa(lp122
F164.45555689249247
aF205.5109231590211
aa(lp123
F164.80026179435873
aF203.79277774303358
aa(lp124
F164.59314153113249
aF202.08450786452607
aa(lp125
F164.22574449501604
aF200.37910632073391
aa(lp126
F164.61733414143171
aF198.66012184904304
aa(lp127
F164.31950025553246
aF196.95347539374512
aa(lp128
F163.90827434129238
aF195.2488582174592
aa(lp129
F163.49704842705233
aF193.54424104117328
aa(lp130
F163.46829954274625
aF191.83277900444364
aa(lp131
F163.85988918916192
aF190.11379453275276
aa(lp132
F164.18344361857248
aF188.39602762846903
aa(lp133
F163.77221770433241
aF186.69141045218316
aa(lp134
F163.67696153623487
aF184.98113863876216
aa(lp135
F163.90980234297245
aF183.26499515768808
aa(lp136
F163.49857642873238
aF181.56037798140221
aa(lp137
F163.0873505144923
aF179.85576080511629
aa(lp138
F162.67612460025225
aF178.15114362883037
aa(lp139
F162.91951658396508
aF176.434811322472
aa(lp140
F162.81370923889227
aF174.72472833433528
aa(lp141
F162.40248332465222
aF173.02011115804936
aa(lp142
F161.99125741041215
aF171.31549398176344
aa(lp143
F161.77048198527962
aF169.6074684778726
aa(lp144
F162.1288420490522
aF167.88907868726841
aa(lp145
F161.71761613481212
aF166.18446151098249
aa(lp146
F161.58755433235254
aF164.47481258388206
aa(lp147
F161.85520077345217
aF162.75804621648746
aa(lp148
F161.44397485921209
aF161.05342904020154
aa(lp149
F161.03274894497204
aF159.34881186391561
aa(lp150
F160.62152303073196
aF157.64419468762975
aa(lp151
F160.83010938008275
aF155.92848526759184
aa(lp152
F160.75910766937201
aF154.21777939313461
aa(lp153
F160.34788175513194
aF152.51316221684868
aa(lp154
F160.64718172715575
aF150.79582937360129
aa(lp155
F161.03877137357142
aF149.07684490191036
aa(lp156
F161.03427694665211
aF147.3649488041446
aa(lp157
F160.62305103241204
aF145.66033162785862
aa(lp158
F160.85584372064437
aF143.94418900791982
aa(lp159
F160.76063567105206
aF142.2339163333636
aa(lp160
F160.34940975681201
aF140.52929915707767
aa(lp161
F159.93818384257196
aF138.82468198079175
aa(lp162
F159.70680912195888
aF137.11684616332047
aa(lp163
F160.07576848121198
aF135.39826668629672
aa(lp164
F159.66454256697193
aF133.6936495100108
aa(lp165
F159.25331665273183
aF131.98903233372488
aa(lp166
F158.84209073849178
aF130.28441515743896
aa(lp167
F158.4308648242517
aF128.57979798115304
aa(lp168
F158.01963891001165
aF126.87518080486711
aa(lp169
F158.3748468703464
aF125.15684742473059
aa(lp170
F158.15722354865167
aF123.44876551037208
aa(lp171
F157.74599763441162
aF121.74414833408616
aa(lp172
F157.33477172017155
aF120.03953115780024
aa(lp173
F157.22581227166089
aF118.32950458013127
aa(lp174
F157.4723563588116
aF116.61311586330524
aa(lp175
F157.06113044457152
aF114.90849868701932
aa(lp176
F156.64990453033147
aF113.2038815107334
aa(lp177
F156.23867861609139
aF111.49926433444747
aa(lp178
F155.82745270185131
aF109.79464715816155
aa(lp179
F155.50226037363271
aF108.08849031323231
aa(lp180
F155.89385002004838
aF106.36950584154141
aa(lp181
F155.55381142625131
aF104.6636146873806
aa(lp182
F155.31933272070566
aF102.9558344192418
aa(lp183
F155.69139606489134
aF101.23719939288557
aa(lp184
F155.28017015065129
aF99.53258221659965
aa(lp185
F155.13640506777858
aF97.823178525251194
aa(lp186
F155.41775478929131
aF96.10616692210462
aa(lp187
F155.00652887505126
aF94.40154974581867
aa(lp188
F154.95347741485153
aF92.690522631260649
aa(lp189
F155.34506706126723
aF90.971538159569747
aa(lp190
F155.69292406657141
aF89.253336333114532
aa(lp191
F155.28169815233136
aF87.548719156828611
aa(lp192
F154.87047223809128
aF85.844101980542689
aa(lp193
F154.45924632385123
aF84.139484804256767
aa(lp194
F154.58762210899744
aF82.42521084327953
aa(lp195
F154.97921175541313
aF80.706226371588627
aa(lp196
F155.14564151537138
aF78.99127139155263
aa(lp197
F154.73441560113133
aF77.28665421526668
aa(lp198
F154.32318968689123
aF75.582037038980758
aa(lp199
F153.91196377265118
aF73.877419862694836
aa(lp200
F154.22176680314334
aF72.159899055298382
aa(lp201
F154.0495484112912
aF70.451004568199863
aa(lp202
F153.63832249705115
aF68.746387391913942
aa(lp203
F153.22709658281107
aF67.041770215628048
aa(lp204
F152.81587066857102
aF65.337153039342127
aa(lp205
F152.40464475433092
aF63.632535863056177
aa(lp206
F152.49821490511511
aF61.918884788399453
aa(lp207
F152.542229392971
aF60.206120568561175
aa(lp208
F152.13100347873092
aF58.501503392275225
aa(lp209
F151.30898814636885
aF58.600153072889441
aa(lp210
F150.34397084328282
aF59.326547049977563
aa(lp211
F149.37895354019682
aF60.052941027065657
aa(lp212
F148.41393623711079
aF60.779335004153808
aa(lp213
F147.44891893402479
aF61.50572898124193
aa(lp214
F146.48390163093876
aF62.232122958330024
aa(lp215
F145.5188843278527
aF62.958516935418118
aa(lp216
F145.11416401613502
aF64.654772518094006
aa(lp217
F144.27457567000326
aF65.598281224429201
aa(lp218
F143.36122178711469
aF66.414103430536557
aa(lp219
F142.96963214069902
aF68.133087902227402
aa(lp220
F142.57804249428332
aF69.852072373918304
aa(lp221
F142.18645284786763
aF71.571056845609178
aa(lp222
F141.50666699954093
aF72.791180114374271
aa(lp223
F140.54164969645493
aF73.517574091462365
aa(lp224
F140.04192097243165
aF75.049372229742573
aa(lp225
F139.65033132601599
aF76.768356701433447
aa(lp226
F139.01804968384204
aF78.070708692396323
aa(lp227
F138.05303238075604
aF78.797102669484445
aa(lp228
F137.50579945057999
aF80.246672085566786
aa(lp229
F136.80872372290656
aF81.436866958495528
aa(lp230
F135.84370641982056
aF82.163260935583622
aa(lp231
F135.36126757514398
aF83.724987469700238
aa(lp232
F134.96967792872829
aF85.443971941391084
aa(lp233
F134.32010640720767
aF86.716395536517609
aa(lp234
F133.35508910412165
aF87.442789513605732
aa(lp235
F132.82514605329231
aF88.922287325524508
aa(lp236
F132.11078044627217
aF90.082553802616758
aa(lp237
F131.14576314318617
aF90.808947779704908
aa(lp238
F130.68061417785628
aF92.400602709657903
aa(lp239
F129.9014544853367
aF93.448712068715935
aa(lp240
F128.93643718225067
aF94.175106045804085
aa(lp241
F128.53608230242028
aF95.878918093791299
aa(lp242
F127.69212852440123
aF96.814870334815112
aa(lp243
F126.78314007339998
aF97.638249006233764
aa(lp244
F126.39155042698431
aF99.357233477924694
aa(lp245
F125.99996078056861
aF101.0762179496156
aa(lp246
F125.20351120870231
aF102.09439891283728
aa(lp247
F124.23849390561631
aF102.82079288992537
aa(lp248
F123.27347660253028
aF103.54718686701349
aa(lp249
F122.494076322528
aF104.59487977450058
aa(lp250
F122.10248667611231
aF106.31386424619149
aa(lp251
F121.71089702969661
aF108.03284871788242
aa(lp252
F121.31930738328094
aF109.75183318957329
aa(lp253
F120.50556793206792
aF110.74008575695856
aa(lp254
F119.56636515426061
aF111.51116410201581
aa(lp255
F119.17477550784491
aF113.23014857370671
aa(lp256
F118.29624197113242
aF114.10624402305771
aa(lp257
F117.42183327882461
aF114.98947948614924
aa(lp258
F117.03024363240891
aF116.70846395784011
aa(lp259
F116.63865398599322
aF118.42744842953104
aa(lp260
F116.24706433957755
aF120.14643290122194
aa(lp261
F115.85547469316185
aF121.86541737291282
aa(lp262
F115.24904194590661
aF123.21251322492571
aa(lp263
F114.28402464282061
aF123.93890720201387
aa(lp264
F113.71094281772588
aF125.34373275704627
aa(lp265
F113.03971598497114
aF126.57867149102492
aa(lp266
F112.07469868188511
aF127.30506546811301
aa(lp267
F111.56641094228985
aF128.82204814117966
aa(lp268
F110.83039002403567
aF129.94482975712407
aa(lp269
F109.86537272094964
aF130.67122373421222
aa(lp270
F109.42187906685388
aF132.300363525313
aa(lp271
F109.03028942043818
aF134.01934799700393
aa(lp272
F108.34177270833675
aF135.22435833514618
aa(lp273
F107.37675540525075
aF135.95075231223433
aa(lp274
F106.88575754500218
aF137.49766338113733
aa(lp275
F106.13244674740126
aF138.59051660124538
aa(lp276
F105.16742944431525
aF139.31691057833348
aa(lp277
F104.74122566956618
aF140.97597876527072
aa(lp278
F104.34963602315048
aF142.69496323696166
aa(lp279
F103.64382943170237
aF143.87004517926749
aa(lp280
F102.67881212861633
aF144.59643915635559
aa(lp281
F102.20510414771449
aF146.17327862109499
aa(lp282
F101.4345034707669
aF147.23620344536664
aa(lp283
F100.46948616768086
aF147.96259742245473
aa(lp284
F100.06057227227849
aF149.65159400522839
aa(lp285
F99.66898262586281
aF151.37057847691932
aa(lp286
F99.277392979447129
aF153.08956294861025
aa(lp287
F98.666594800304509
aF154.42910233531171
aa(lp288
F97.701577497218494
aF155.15549631239986
aa(lp289
F97.132861104011113
aF156.56787833274359
aa(lp290
F96.457268839369036
aF157.79526060141086
aa(lp291
F95.492251536283007
aF158.52165457849907
aa(lp292
F94.988329228575111
aF160.04619371687704
aa(lp293
F94.596739582159429
aF161.76517818856797
aa(lp294
F94.205149935743734
aF163.4841626602589
aa(lp295
F93.68936016890666
aF164.98815949135599
aa(lp296
F92.724342865820645
aF165.71455346844408
aa(lp297
F91.759325562734617
aF166.44094744553217
aa(lp298
F90.794308259648602
aF167.16734142262027
aa(lp299
F89.829290956562588
aF167.89373539970848
aa(lp300
F88.946323248682802
aF168.76215539758635
aa(lp301
F88.554733602267106
aF170.48113986927723
aa(lp302
F88.163143955851424
aF172.20012434096816
aa(lp303
F87.771554309435729
aF173.91910881265909
aa(lp304
F87.379964663020047
aF175.63809328434996
aa(lp305
F86.782090931336782
aF177.00000460157645
aa(lp306
F85.817073628250753
aF177.7263985786646
aa(lp307
F85.23543278758406
aF179.11640866848336
aa(lp308
F84.843843141168364
aF180.83539314017429
aa(lp309
F84.293473615637865
aF182.27953317959856
aa(lp310
F83.32845631255185
aF183.00592715668665
aa(lp311
F82.687809766803753
aF182.30841143637019
aa(lp312
F82.276583852563689
aF180.60379426008433
aa(lp313
F81.865357938323612
aF178.89917708379841
aa(lp314
F81.454132024083535
aF177.19455990751248
aa(lp315
F81.042906109843472
aF175.48994273122656
aa(lp316
F81.042899245552988
aF173.77796632343552
aa(lp317
F81.180490748483507
aF172.06352743673148
aa(lp318
F80.76926483424343
aF170.35891026044555
aa(lp319
F80.859971592625939
aF168.64531042944492
aa(lp320
F80.906849472883479
aF166.93249496595053
aa(lp321
F80.495623558643416
aF165.2278777896646
aa(lp322
F80.677043939698891
aF163.51265453545437
aa(lp323
F80.633208197283466
aF161.80146249516957
aa(lp324
F80.221982283043388
aF160.09684531888365
aa(lp325
F79.810756368803325
aF158.39222814259767
aa(lp326
F79.52800934101343
aF156.68531169085503
aa(lp327
F79.919598987429112
aF154.9663272191641
aa(lp328
F79.537115093203298
aF153.26119567181672
aa(lp329
F79.345081688086367
aF151.55265579686449
aa(lp330
F79.674699731843333
aF149.83478037732169
aa(lp331
F79.263473817603256
aF148.13016320103577
aa(lp332
F79.162154035159332
aF146.41999990287388
aa(lp333
F79.401058456243305
aF144.70374790654074
aa(lp334
F78.989832542003256
aF142.99913073025482
aa(lp335
F78.979226382232284
aF141.28734400888334
aa(lp336
F79.127417180643292
aF139.57271543575979
aa(lp337
F78.716191266403214
aF137.86809825947387
aa(lp338
F78.796298729305235
aF136.15468811489279
aa(lp339
F78.853775905043264
aF134.44168296497884
aa(lp340
F78.442549990803187
aF132.73706578869292
aa(lp341
F78.613371076378172
aF131.02203222090219
aa(lp342
F78.580134629443236
aF129.31065049419783
aa(lp343
F78.168908715203173
aF127.60603331791197
aa(lp344
F78.430443423451123
aF125.88937632691164
aa(lp345
F78.306493353843209
aF124.17961802341688
aa(lp346
F77.895267439603145
aF122.47500084713101
aa(lp347
F77.484041525363082
aF120.77038367084504
aa(lp348
F77.072815611123005
aF119.06576649455914
aa(lp349
F76.661589696882928
aF117.36114931827325
aa(lp350
F76.250363782642864
aF115.6565321419873
aa(lp351
F75.839137868402815
aF113.95191496570138
aa(lp352
F76.132374226080188
aF112.23469063771299
aa(lp353
F75.976722507042837
aF110.52549967120635
aa(lp354
F75.565496592802788
aF108.82088249492043
aa(lp355
F75.949446573153153
aF107.10203474372241
aa(lp356
F75.703081231442809
aF105.3944672004254
aa(lp357
F75.291855317202746
aF103.68985002413945
aa(lp358
F74.880629402962697
aF101.98523284785355
aa(lp359
F74.469403488722619
aF100.28061567156763
aa(lp360
F74.058177574482542
aF98.575998495281681
aa(lp361
F74.225894675124934
aF96.861020476823398
aa(lp362
F74.195762213122606
aF95.149583200786651
aa(lp363
F73.784536298882529
aF93.444966024500729
aa(lp364
F74.042967022197871
aF91.728364582832825
aa(lp365
F73.922120937522564
aF90.0185507300057
aa(lp366
F73.510895023282515
aF88.313933553719778
aa(lp367
F73.099669109042409
aF86.609316377433856
aa(lp368
F72.893932423512396
aF84.901021738233538
aa(lp369
F73.237253747682487
aF83.182901082938798
aa(lp370
F72.826027833442396
aF81.478283906652905
aa(lp371
F72.414801919202318
aF79.773666730366983
aa(lp372
F72.00357600496227
aF78.069049554081033
aa(lp373
F72.136487471242617
aF76.354694421943321
aa(lp374
F72.141160643602291
aF74.642634259586032
aa(lp375
F71.729934729362242
aF72.938017083300082
aa(lp376
F71.953559818315583
aF71.222038527952719
aa(lp377
F71.867519368002277
aF69.511601788805052
aa(lp378
F71.4562934537622
aF67.80698461251913
aa(lp379
F71.77063216538852
aF66.089382633962174
aa(lp380
F71.593878092402264
aF64.380569318024101
aa(lp381
F71.182652178162186
aF62.675952141738151
aa(lp382
F70.771426263922109
aF60.971334965452257
aa(lp383
F70.36020034968206
aF59.266717789166336
aa(lp384
F69.948974435441997
aF57.562100612880386
aa(lp385
F69.53774852120192
aF55.857483436594492
aa(lp386
F69.126522606961842
aF54.152866260308542
aa(lp387
F69.47256296801757
aF52.434696944763488
aa(lp388
F69.264107245601892
aF50.726450965813513
aa(lp389
F68.89804566867484
aF49.021025522463873
aa(lp390
F69.289635315090521
aF47.302041050772942
aa(lp391
F68.990465970001878
aF45.595418495032561
aa(lp392
F68.579240055761801
aF43.890801318746639
aa(lp393
F68.168014141521724
aF42.186184142460746
aa(lp394
F67.75678822728166
aF40.481566966174825
aa(lp395
F67.345562313041583
aF38.776949789888874
aa(lp396
F67.566083417062316
aF37.061026783873956
aa(lp397
F67.483146951681633
aF35.350534495393845
aa(lp398
F67.07192103744157
aF33.645917319107895
aa(lp399
F67.383155764135282
aF31.928370889883354
aa(lp400
F67.209505676081605
aF30.219502024612893
aa(lp401
F66.798279761841542
aF28.514884848326943
aa(lp402
F66.387053847601479
aF26.81026767204105
aa(lp403
F65.975827933361401
aF25.105650495755128
aa(lp404
F65.564602019121324
aF23.401033319469178
aa(lp405
F65.153376104881261
aF21.696416143183285
aa(lp406
F64.742150190641198
aF19.991798966897335
aa(lp407
F64.33092427640112
aF18.287181790611442
aa(lp408
F64.118979621005906
aF16.578998250075983
aa(lp409
F64.46850891504117
aF14.860766496116383
aa(lp410
F64.057283000801092
aF13.15614931983049
aa(lp411
F63.646057086561015
aF11.451532143544568
aa(lp412
F63.234831172320952
aF9.7469149672586184
aa(lp413
F62.823605258080903
aF8.0422977909727251
aa(lp414
F62.412379343840826
aF6.337680614686775
aa(lp415
F62.001153429600748
aF4.6330634384008818
aa(lp416
F61.589927515360685
aF2.9284462621149601
aa(lp417
F61.178701601120622
aF1.2238290858290384
aa(lp418
F60.432260859328622
aF0.12345996776497259
aa(lp419
F59.462369169153021
aF0
aa(lp420
F58.497351866066992
aF0.72639397708815068
aa(lp421
F57.532334562980978
aF1.4527879541762445
aa(lp422
F56.567317259894963
aF2.1791819312643668
aa(lp423
F55.602299956808935
aF2.9055759083524606
aa(lp424
F54.824910544548175
aF3.9567495830870314
aa(lp425
F54.433320898132479
aF5.6757340547779052
aa(lp426
F54.041731251716797
aF7.3947185264687789
aa(lp427
F53.113682641110074
aF8.1851044863745699
aa(lp428
F52.288789022696506
aF9.1540494389112439
aa(lp429
F51.869373983260616
aF10.824868775385625
aa(lp430
F50.904356680174587
aF11.551262752473718
aa(lp431
F50.14425714726049
aF12.632364823044639
aa(lp432
F49.660048022325128
aF14.191027041484773
aa(lp433
F48.695030719239128
aF14.917421018572895
aa(lp434
F47.999725271824488
aF16.110680207178063
aa(lp435
F47.450722061389669
aF17.557185307583978
aa(lp436
F46.48570475830364
aF18.283579284672072
aa(lp437
F45.855193396388486
aF19.588995591311459
aa(lp438
F45.241396100454182
aF20.923343573683155
aa(lp439
F44.276378797368167
aF21.649737550771249
aa(lp440
F43.710661520952499
aF23.067310975444855
aa(lp441
F43.319071874536817
aF24.786295447135757
aa(lp442
F42.927482228121121
aF26.505279918826602
aa(lp443
F42.473487429991835
aF28.116242463628168
aa(lp444
F41.508470126905806
aF28.842636440716319
aa(lp445
F40.543452823819791
aF29.569030417804441
aa(lp446
F39.578435520733763
aF30.295424394892535
aa(lp447
F39.0300081236648
aF31.742926215402576
aa(lp448
F38.638418477249118
aF33.461910687093422
aa(lp449
F38.054835508120874
aF34.848558995826522
aa(lp450
F37.089818205034859
aF35.574952972914645
aa(lp451
F36.124800901948845
aF36.301346950002795
aa(lp452
F35.159783598862816
aF37.027740927090889
aa(lp453
F34.740944372792811
aF38.699556983669339
aa(lp454
F33.915474941013358
aF39.667505216101944
aa(lp455
F32.988002143772491
aF40.458887896111833
aa(lp456
F32.596412497356795
aF42.177872367802706
aa(lp457
F32.204822850941113
aF43.896856839493609
aa(lp458
F31.813233204525428
aF45.615841311184511
aa(lp459
F31.147566270551007
aF46.860404106047014
aa(lp460
F30.182548967464978
aF47.586798083135108
aa(lp461
F29.668701329089455
aF49.094156695317906
aa(lp462
F29.277111682673752
aF50.813141167008808
aa(lp463
F28.885522036258063
aF52.532125638699739
aa(lp464
F28.493932389842382
aF54.251110110390613
aa(lp465
F28.100366245325223
aF55.966673307915016
aa(lp466
F27.135348942239187
aF56.693067285003139
aa(lp467
F26.170331639153193
aF57.419461262091204
aa(lp468
F25.205314336067158
aF58.145855239179355
aa(lp469
F24.596458285386067
aF59.488756406966473
aa(lp470
F24.204868638970378
aF61.207740878657404
aa(lp471
F23.681714323454255
aF62.698989840113398
aa(lp472
F22.71669702036824
aF63.425383817201492
aa(lp473
F22.060336763534391
aF64.6860562627908
aa(lp474
F21.472388362518782
aF66.065148106212519
aa(lp475
F20.507371059432767
aF66.791542083300641
aa(lp476
F19.915804888098382
aF68.164371646924195
aa(lp477
F19.5242152416827
aF69.883356118615097
aa(lp478
F18.983771046819864
aF71.344676684234656
aa(lp479
F18.01875374373385
aF72.071070661322779
aa(lp480
F17.379683366246692
aF73.361671502748521
aa(lp481
F16.988093719831003
aF75.080655974439424
aa(lp482
F16.495153731120933
aF76.624205262256737
aa(lp483
F15.530136428034897
aF77.350599239344859
aa(lp484
F14.565119124948883
aF78.076993216432982
aa(lp485
F13.600101821862854
aF78.803387193521104
aa(lp486
F13.090619615374688
aF80.318302271015312
aa(lp487
F12.699029968959007
aF82.037286742706243
aa(lp488
F12.076501809249965
aF83.356521794455148
aa(lp489
F11.111484506163936
aF84.082915771543242
aa(lp490
F10.554498093522998
aF85.51560212683961
aa(lp491
F9.8671758483144778
aF86.722680060554268
aa(lp492
F8.9021585452284633
aF87.449074037642418
aa(lp493
F8.4099662180869892
aF88.993917510973034
aa(lp494
F8.018376571671304
aF90.712901982663936
aa(lp495
F7.6267869252556153
aF92.431886454354839
aa(lp496
F7.2351972788399301
aF94.150870926045741
aa(lp497
F6.843607632424245
aF95.869855397736671
aa(lp498
F6.4520179860085562
aF97.588839869427574
aa(lp499
F6.0604283395928711
aF99.307824341118476
aa(lp500
F5.2963758104757694
aF100.38208386335629
aa(lp501
F4.3313585073897372
aF101.10847784044444
aa(lp502
F3.9158964641568801
aF102.78613972525187
aa(lp503
F3.5243068177411949
aF104.5051241969428
aa(lp504
F3.1327171713255098
aF106.22410866863373
aa(lp505
F2.741127524909821
aF107.94309314032461
aa(lp506
F2.3495378784941359
aF109.66207761201554
aa(lp507
F1.9579482320784507
aF111.38106208370641
aa(lp508
F1.5663585856627655
aF113.10004655539734
aa(lp509
F1.1747689392470768
aF114.81903102708824
aa(lp510
F0.78317929283137389
aF116.53801549877915
aa(lp511
F0.39158964641568872
aF118.25699997047005
aa(lp512
F0
aF119.97598444216095
aa.